(lp0
V\u041f\u0430\u0440\u043a\u0438 \u0430\u0442\u0442\u0440\u0430\u043a\u0446\u0438\u043e\u043d\u043e\u0432
p1
aV\u0421\u0438\u043d\u0430\u0433\u043e\u0433\u0438
p2
aV\u0411\u0438\u0431\u043b\u0438\u043e\u0442\u0435\u043a\u0438
p3
aV\u0414\u043e\u043c\u0430 \u043a\u0443\u043b\u044c\u0442\u0443\u0440\u044b
p4
aV\u041a\u043d\u0438\u0436\u043d\u044b\u0435 \u043c\u0430\u0433\u0430\u0437\u0438\u043d\u044b
p5
aV\u0410\u0440\u0442-\u0446\u0435\u043d\u0442\u0440\u044b
p6
aV\u0421\u0430\u043b\u043e\u043d\u044b \u043a\u0440\u0430\u0441\u043e\u0442\u044b
p7
aV\u0417\u0430\u043c\u043a\u0438
p8
aV\u0413\u0430\u043b\u0435\u0440\u0435\u0438
p9
aV\u0427\u0430\u0439\u043d\u044b\u0435 \u043c\u0430\u0433\u0430\u0437\u0438\u043d\u044b, \u0447\u0430\u0439
p10
aV\u0411\u0438\u043b\u044c\u044f\u0440\u0434
p11
aV\u0411\u0430\u0440\u044b
p12
aV\u041a\u0430\u0444\u0435
p13
aV\u041f\u0430\u043c\u044f\u0442\u043d\u0438\u043a\u0438
p14
aV\u0423\u0441\u0430\u0434\u044c\u0431\u044b
p15
aV\u0413\u043e\u0441\u0442\u0438\u043d\u0438\u0446\u044b
p16
aV\u041f\u0430\u0440\u043a\u0438
p17
aV\u0413\u043e\u0440\u043d\u043e\u043b\u044b\u0436\u043d\u044b\u0435 \u0441\u043a\u043b\u043e\u043d\u044b
p18
aV\u041c\u043e\u0441\u0442\u044b
p19
aV\u0410\u043d\u0442\u0438\u043a\u0430\u0444\u0435
p20
aV\u0424\u043e\u043d\u0442\u0430\u043d\u044b
p21
aV\u0420\u0435\u0441\u0442\u043e\u0440\u0430\u043d\u044b
p22
aS'\xd0\xa8\xd0\xbe\xd1\x83'
p23
aV\u0412\u044b\u0441\u0442\u0430\u0432\u043a\u0438
p24
aS'\xd0\x94\xd0\xb5\xd1\x82\xd1\x81\xd0\xba\xd0\xb8\xd0\xb5 \xd0\xbc\xd0\xb5\xd1\x80\xd0\xbe\xd0\xbf\xd1\x80\xd0\xb8\xd1\x8f\xd1\x82\xd0\xb8\xd1\x8f'
p25
aV\u0417\u043d\u0430\u043d\u0438\u044f
p26
aS'\xd0\x9a\xd0\xbe\xd0\xbd\xd1\x86\xd0\xb5\xd1\x80\xd1\x82\xd1\x8b'
p27
aV\u0422\u0435\u0430\u0442\u0440\u044b
p28
aV\u041a\u043e\u043d\u0446\u0435\u0440\u0442\u044b
p29
aS'\xd0\xa2\xd0\xb5\xd0\xb0\xd1\x82\xd1\x80\xd1\x8b'
p30
aS'\xd0\x92\xd1\x8b\xd1\x81\xd1\x82\xd0\xb0\xd0\xb2\xd0\xba\xd0\xb8'
p31
aV\u0414\u0435\u0442\u0441\u043a\u0438\u0435 \u043c\u0435\u0440\u043e\u043f\u0440\u0438\u044f\u0442\u0438\u044f
p32
aS'\xd0\xad\xd0\xba\xd1\x81\xd0\xba\xd1\x83\xd1\x80\xd1\x81\xd0\xb8\xd0\xb8'
p33
aV\u0418\u0433\u0440\u044b
p34
aS'\xd0\x9a\xd0\xbb\xd1\x83\xd0\xb1\xd1\x8b'
p35
a.