(lp0
(lp1
I0
aI23
aI25
aI13
aI13
aI18
aI13
aI15
aI21
aI53
aI32
aI22
aI21
aI23
aI32
aI42
aI23
aI24
aI21
aI118
aI69
aI146
aI17
aI18
aI14
aI22
aI14
aI23
aI22
aI23
aI22
aI24
aI21
aI22
aI25
aI32
aI29
aI25
aI13
aI21
aI17
aI22
aI22
aI18
aI24
aI17
aI23
aI19
aI18
aI22
aI22
aI22
aI13
aI22
aI22
aI18
aI19
aI21
aI20
aI23
aI19
aI26
aI17
aI21
aa(lp2
I21
aI0
aI13
aI9
aI9
aI8
aI12
aI12
aI23
aI61
aI34
aI10
aI4
aI19
aI17
aI41
aI19
aI9
aI10
aI104
aI65
aI140
aI14
aI14
aI14
aI4
aI11
aI10
aI6
aI11
aI6
aI17
aI10
aI7
aI10
aI22
aI11
aI11
aI16
aI7
aI11
aI6
aI10
aI19
aI3
aI14
aI10
aI18
aI10
aI10
aI10
aI10
aI16
aI12
aI12
aI8
aI18
aI23
aI13
aI10
aI12
aI16
aI16
aI10
aa(lp3
I24
aI12
aI0
aI16
aI16
aI15
aI15
aI15
aI32
aI72
aI44
aI15
aI12
aI11
aI17
aI33
aI11
aI10
aI15
aI107
aI50
aI127
aI10
aI26
aI15
aI11
aI16
aI5
aI11
aI12
aI11
aI6
aI11
aI17
aI7
aI21
aI18
aI6
aI16
aI10
aI17
aI11
aI11
aI20
aI16
aI11
aI11
aI30
aI20
aI10
aI11
aI11
aI17
aI8
aI8
aI15
aI30
aI32
aI12
aI10
aI13
aI4
aI11
aI11
aa(lp4
I15
aI14
aI14
aI0
aI7
aI8
aI7
aI6
aI29
aI68
aI40
aI12
aI13
aI11
aI23
aI33
aI11
aI15
aI11
aI112
aI56
aI133
aI4
aI22
aI4
aI14
aI8
aI13
aI13
aI13
aI14
aI9
aI12
aI18
aI14
aI25
aI22
aI17
aI7
aI13
aI13
aI14
aI13
aI10
aI16
aI4
aI13
aI27
aI15
aI10
aI13
aI13
aI7
aI11
aI11
aI8
aI27
aI29
aI6
aI12
aI6
aI11
aI5
aI11
aa(lp5
I15
aI14
aI14
aI7
aI0
aI8
aI7
aI6
aI29
aI68
aI40
aI12
aI13
aI11
aI23
aI33
aI11
aI15
aI11
aI112
aI56
aI133
aI4
aI22
aI4
aI14
aI8
aI13
aI13
aI13
aI14
aI9
aI12
aI18
aI14
aI25
aI22
aI17
aI7
aI13
aI13
aI14
aI13
aI10
aI16
aI4
aI13
aI27
aI15
aI10
aI13
aI13
aI7
aI11
aI11
aI8
aI27
aI29
aI6
aI12
aI6
aI11
aI5
aI11
aa(lp6
I15
aI6
aI13
aI5
aI5
aI0
aI5
aI6
aI23
aI67
aI36
aI4
aI6
aI16
aI19
aI38
aI16
aI10
aI4
aI111
aI58
aI138
aI7
aI16
aI8
aI7
aI6
aI10
aI6
aI9
aI6
aI12
aI6
aI10
aI10
aI25
aI16
aI12
aI11
aI6
aI6
aI6
aI6
aI14
aI9
aI7
aI6
aI19
aI8
aI8
aI6
aI6
aI11
aI9
aI9
aI4
aI19
aI23
aI2
aI8
aI3
aI14
aI8
aI8
aa(lp7
I16
aI14
aI13
aI7
aI7
aI8
aI0
aI6
aI28
aI68
aI40
aI11
aI13
aI11
aI22
aI36
aI11
aI14
aI10
aI110
aI56
aI135
aI4
aI22
aI6
aI14
aI8
aI13
aI13
aI12
aI14
aI10
aI12
aI17
aI12
aI24
aI21
aI15
aI10
aI13
aI13
aI14
aI13
aI12
aI16
aI4
aI13
aI27
aI14
aI10
aI13
aI13
aI10
aI11
aI11
aI8
aI27
aI29
aI6
aI12
aI5
aI10
aI5
aI10
aa(lp8
I16
aI13
aI12
aI8
aI8
aI9
aI7
aI0
aI28
aI67
aI38
aI11
aI12
aI12
aI23
aI35
aI12
aI11
aI9
aI109
aI57
aI134
aI5
aI22
aI6
aI13
aI9
aI10
aI11
aI10
aI12
aI10
aI10
aI17
aI11
aI26
aI21
aI14
aI9
aI10
aI13
aI12
aI11
aI13
aI15
aI4
aI11
aI27
aI15
aI7
aI11
aI11
aI9
aI8
aI8
aI9
aI27
aI28
aI4
aI10
aI5
aI12
aI7
aI6
aa(lp9
I16
aI22
aI32
aI24
aI24
aI21
aI25
aI25
aI0
aI53
aI30
aI25
aI22
aI34
aI37
aI38
aI34
aI28
aI24
aI114
aI72
aI144
aI27
aI14
aI26
aI22
aI22
aI28
aI23
aI27
aI23
aI33
aI25
aI22
aI28
aI34
aI32
aI30
aI24
aI23
aI20
aI23
aI23
aI30
aI23
aI27
aI25
aI9
aI16
aI28
aI24
aI24
aI24
aI28
aI28
aI21
aI9
aI13
aI26
aI26
aI24
aI33
aI29
aI27
aa(lp10
I62
aI63
aI72
aI68
aI68
aI62
aI68
aI68
aI58
aI0
aI60
aI65
aI61
aI74
aI78
aI89
aI74
aI68
aI65
aI104
aI101
aI157
aI69
aI59
aI68
aI63
aI67
aI70
aI65
aI69
aI65
aI72
aI65
aI64
aI69
aI83
aI67
aI69
aI67
aI64
aI63
aI65
aI65
aI71
aI65
aI69
aI65
aI59
aI60
aI67
aI65
aI65
aI67
aI67
aI67
aI62
aI59
aI61
aI66
aI65
aI67
aI72
aI70
aI66
aa(lp11
I34
aI37
aI44
aI38
aI38
aI36
aI38
aI38
aI41
aI49
aI0
aI41
aI36
aI47
aI46
aI36
aI47
aI40
aI39
aI107
aI47
aI140
aI41
aI33
aI41
aI36
aI40
aI41
aI36
aI40
aI36
aI46
aI38
aI36
aI41
aI43
aI42
aI42
aI40
aI36
aI36
aI36
aI38
aI45
aI38
aI42
aI40
aI31
aI33
aI38
aI40
aI40
aI40
aI40
aI40
aI36
aI31
aI27
aI41
aI38
aI39
aI45
aI44
aI40
aa(lp12
I18
aI10
aI12
aI8
aI8
aI5
aI7
aI7
aI27
aI67
aI39
aI0
aI8
aI16
aI20
aI37
aI16
aI9
aI3
aI109
aI58
aI135
aI7
aI19
aI9
aI8
aI7
aI7
aI8
aI7
aI8
aI12
aI7
aI14
aI8
aI24
aI18
aI11
aI11
aI7
aI13
aI8
aI7
aI15
aI12
aI5
aI6
aI23
aI12
aI4
aI8
aI8
aI11
aI4
aI4
aI5
aI23
aI27
aI2
aI6
aI3
aI11
aI9
aI3
aa(lp13
I22
aI6
aI12
aI11
aI11
aI8
aI12
aI13
aI20
aI61
aI36
aI9
aI0
aI19
aI18
aI41
aI19
aI8
aI8
aI106
aI58
aI139
aI14
aI12
aI14
aI2
aI14
aI10
aI5
aI9
aI5
aI15
aI7
aI7
aI9
aI23
aI15
aI12
aI17
aI7
aI12
aI5
aI6
aI20
aI6
aI13
aI8
aI16
aI8
aI8
aI7
aI7
aI17
aI10
aI10
aI8
aI16
aI20
aI11
aI9
aI9
aI12
aI16
aI10
aa(lp14
I22
aI21
aI12
aI14
aI14
aI18
aI12
aI13
aI38
aI79
aI49
aI18
aI17
aI0
aI25
aI21
aI4
aI18
aI18
aI108
aI49
aI127
aI11
aI32
aI11
aI19
aI12
aI13
aI17
aI15
aI17
aI7
aI14
aI24
aI16
aI29
aI26
aI17
aI13
aI16
aI23
aI17
aI16
aI15
aI23
aI13
aI15
aI36
aI23
aI13
aI17
aI17
aI13
aI12
aI12
aI18
aI36
aI37
aI14
aI16
aI13
aI12
aI7
aI14
aa(lp15
I29
aI22
aI19
aI24
aI24
aI20
aI24
aI24
aI37
aI76
aI45
aI24
aI18
aI27
aI0
aI36
aI27
aI18
aI24
aI95
aI52
aI132
aI21
aI25
aI25
aI19
aI24
aI18
aI18
aI20
aI18
aI21
aI19
aI21
aI19
aI9
aI19
aI17
aI24
aI19
aI21
aI18
aI21
aI30
aI21
aI21
aI20
aI32
aI22
aI21
aI21
aI21
aI24
aI20
aI20
aI20
aI32
aI38
aI23
aI17
aI24
aI20
aI25
aI20
aa(lp16
I44
aI41
aI30
aI39
aI39
aI40
aI40
aI39
aI58
aI57
aI59
aI42
aI40
aI23
aI32
aI0
aI23
aI39
aI41
aI117
aI22
aI116
aI35
aI43
aI36
aI40
aI40
aI34
aI39
aI38
aI39
aI30
aI38
aI44
aI38
aI28
aI42
aI36
aI39
aI40
aI45
aI39
aI41
aI39
aI41
aI37
aI41
aI48
aI44
aI38
aI42
aI42
aI39
aI36
aI36
aI40
aI48
aI42
aI40
aI39
aI40
aI30
aI31
aI37
aa(lp17
I22
aI21
aI12
aI14
aI14
aI18
aI12
aI13
aI38
aI79
aI49
aI18
aI17
aI4
aI25
aI21
aI0
aI18
aI18
aI108
aI49
aI127
aI11
aI32
aI11
aI19
aI12
aI13
aI17
aI15
aI17
aI7
aI14
aI24
aI16
aI29
aI26
aI17
aI13
aI16
aI23
aI17
aI16
aI15
aI23
aI13
aI15
aI36
aI23
aI13
aI17
aI17
aI13
aI12
aI12
aI18
aI36
aI37
aI14
aI16
aI13
aI12
aI7
aI14
aa(lp18
I25
aI10
aI7
aI16
aI16
aI13
aI15
aI15
aI28
aI68
aI41
aI12
aI6
aI18
aI15
aI37
aI18
aI0
aI12
aI103
aI60
aI134
aI13
aI18
aI16
aI6
aI15
aI5
aI6
aI8
aI5
aI13
aI8
aI14
aI3
aI19
aI15
aI5
aI19
aI5
aI14
aI5
aI9
aI21
aI11
aI12
aI9
aI23
aI14
aI7
aI9
aI9
aI19
aI9
aI9
aI13
aI23
aI28
aI11
aI7
aI12
aI10
aI15
aI8
aa(lp19
I18
aI12
aI13
aI7
aI7
aI5
aI6
aI7
aI26
aI67
aI38
aI4
aI7
aI16
aI21
aI37
aI16
aI10
aI0
aI111
aI58
aI136
aI7
aI18
aI10
aI9
aI7
aI10
aI7
aI8
aI7
aI13
aI8
aI13
aI10
aI25
aI19
aI12
aI11
aI7
aI10
aI7
aI8
aI15
aI12
aI6
aI7
aI23
aI10
aI6
aI6
aI6
aI12
aI8
aI8
aI5
aI23
aI26
aI3
aI8
aI4
aI13
aI10
aI6
aa(lp20
I121
aI104
aI109
aI114
aI114
aI109
aI114
aI114
aI118
aI113
aI113
aI112
aI106
aI114
aI92
aI114
aI114
aI106
aI111
aI0
aI114
aI194
aI114
aI111
aI115
aI107
aI113
aI109
aI107
aI106
aI107
aI108
aI108
aI108
aI106
aI90
aI96
aI106
aI116
aI107
aI109
aI107
aI110
aI118
aI103
aI114
aI110
aI115
aI110
aI106
aI110
aI110
aI116
aI111
aI111
aI109
aI115
aI118
aI113
aI106
aI113
aI108
aI111
aI109
aa(lp21
I70
aI62
aI50
aI59
aI59
aI62
aI60
aI60
aI81
aI94
aI76
aI64
aI61
aI48
aI50
aI37
aI48
aI57
aI61
aI117
aI0
aI23
aI57
aI74
aI59
aI60
aI62
aI53
aI59
aI57
aI59
aI49
aI58
aI67
aI56
aI48
aI59
aI56
aI60
aI59
aI67
aI59
aI59
aI56
aI64
aI57
aI61
aI76
aI69
aI58
aI59
aI59
aI60
aI56
aI56
aI62
aI76
aI79
aI60
aI58
aI60
aI49
aI52
aI58
aa(lp22
I145
aI138
aI126
aI136
aI136
aI138
aI136
aI136
aI142
aI160
aI144
aI139
aI136
aI123
aI131
aI115
aI123
aI135
aI139
aI143
aI104
aI0
aI132
aI143
aI135
aI136
aI137
aI130
aI136
aI134
aI136
aI124
aI134
aI143
aI132
aI131
aI136
aI133
aI136
aI135
aI143
aI136
aI135
aI136
aI138
aI132
aI135
aI142
aI143
aI133
aI135
aI135
aI136
aI132
aI132
aI138
aI142
aI144
aI136
aI134
aI136
aI124
aI129
aI134
aa(lp23
I18
aI12
aI11
aI8
aI8
aI9
aI7
aI7
aI29
aI70
aI40
aI10
aI11
aI12
aI23
aI34
aI12
aI11
aI9
aI111
aI57
aI133
aI0
aI21
aI7
aI13
aI8
aI10
aI11
aI10
aI11
aI10
aI10
aI16
aI10
aI25
aI21
aI12
aI10
aI10
aI12
aI11
aI12
aI14
aI14
aI3
aI10
aI26
aI14
aI8
aI12
aI12
aI11
aI8
aI8
aI9
aI26
aI29
aI4
aI8
aI5
aI10
aI7
aI6
aa(lp24
I18
aI17
aI24
aI18
aI18
aI15
aI18
aI18
aI15
aI57
aI29
aI18
aI15
aI28
aI27
aI44
aI28
aI22
aI17
aI107
aI68
aI144
aI20
aI0
aI20
aI17
aI17
aI20
aI16
aI20
aI16
aI26
aI19
aI12
aI21
aI27
aI20
aI23
aI19
aI16
aI12
aI16
aI18
aI23
aI19
aI21
aI19
aI10
aI10
aI20
aI18
aI18
aI19
aI20
aI20
aI15
aI10
aI17
aI19
aI19
aI18
aI26
aI23
aI19
aa(lp25
I14
aI18
aI18
aI8
aI8
aI13
aI7
aI8
aI28
aI68
aI40
aI16
aI17
aI12
aI26
aI33
aI12
aI18
aI14
aI115
aI57
aI135
aI8
aI23
aI0
aI18
aI5
aI16
aI17
aI15
aI18
aI12
aI17
aI19
aI18
aI30
aI27
aI19
aI5
aI17
aI13
aI18
aI18
aI8
aI19
aI8
aI18
aI27
aI15
aI14
aI18
aI18
aI5
aI14
aI14
aI13
aI27
aI28
aI11
aI17
aI10
aI15
aI5
aI14
aa(lp26
I22
aI6
aI10
aI13
aI13
aI9
aI14
aI14
aI23
aI61
aI35
aI9
aI2
aI18
aI17
aI40
aI18
aI7
aI9
aI104
aI61
aI137
aI14
aI13
aI16
aI0
aI14
aI9
aI4
aI9
aI4
aI16
aI8
aI8
aI7
aI22
aI14
aI11
aI17
aI5
aI11
aI4
aI7
aI21
aI6
aI13
aI8
aI18
aI9
aI8
aI9
aI9
aI17
aI10
aI10
aI9
aI18
aI22
aI9
aI8
aI9
aI12
aI15
aI9
aa(lp27
I12
aI16
aI20
aI6
aI6
aI10
aI6
aI6
aI25
aI68
aI40
aI14
aI15
aI14
aI25
aI37
aI14
aI17
aI14
aI115
aI58
aI138
aI8
aI20
aI6
aI15
aI0
aI15
aI14
aI14
aI14
aI15
aI15
aI19
aI15
aI29
aI24
aI17
aI8
aI14
aI11
aI14
aI16
aI11
aI18
aI8
aI15
aI22
aI14
aI12
aI14
aI14
aI7
aI13
aI13
aI10
aI22
aI25
aI10
aI13
aI9
aI17
aI10
aI11
aa(lp28
I22
aI13
aI5
aI14
aI14
aI11
aI13
aI13
aI29
aI70
aI41
aI12
aI9
aI11
aI18
aI33
aI11
aI9
aI11
aI107
aI52
aI131
aI7
aI21
aI12
aI10
aI12
aI0
aI8
aI7
aI8
aI7
aI8
aI15
aI4
aI26
aI18
aI4
aI16
aI7
aI16
aI8
aI8
aI19
aI15
aI7
aI7
aI27
aI17
aI6
aI8
aI8
aI16
aI4
aI4
aI11
aI27
aI29
aI8
aI8
aI10
aI5
aI10
aI8
aa(lp29
I22
aI6
aI10
aI11
aI11
aI9
aI13
aI13
aI22
aI63
aI35
aI9
aI2
aI16
aI18
aI38
aI16
aI6
aI8
aI106
aI58
aI136
aI11
aI15
aI14
aI3
aI14
aI7
aI0
aI6
aI1
aI11
aI4
aI8
aI6
aI22
aI16
aI7
aI17
aI1
aI14
aI1
aI4
aI21
aI8
aI11
aI6
aI18
aI10
aI4
aI6
aI6
aI17
aI6
aI6
aI9
aI18
aI22
aI10
aI4
aI9
aI11
aI14
aI6
aa(lp30
I25
aI11
aI8
aI15
aI15
aI12
aI13
aI15
aI27
aI69
aI40
aI12
aI7
aI13
aI18
aI34
aI13
aI8
aI11
aI107
aI55
aI133
aI9
aI19
aI14
aI7
aI14
aI4
aI6
aI0
aI6
aI9
aI7
aI14
aI4
aI22
aI18
aI8
aI17
aI5
aI14
aI6
aI8
aI20
aI14
aI9
aI7
aI23
aI15
aI1
aI8
aI8
aI17
aI5
aI5
aI12
aI23
aI28
aI9
aI3
aI10
aI8
aI12
aI7
aa(lp31
I23
aI5
aI11
aI11
aI11
aI8
aI13
aI13
aI22
aI64
aI35
aI8
aI3
aI16
aI18
aI38
aI16
aI6
aI8
aI105
aI58
aI137
aI12
aI15
aI15
aI2
aI14
aI7
aI2
aI6
aI0
aI11
aI5
aI8
aI6
aI22
aI16
aI9
aI16
aI2
aI15
aI1
aI4
aI21
aI8
aI11
aI6
aI18
aI11
aI4
aI6
aI6
aI16
aI7
aI7
aI8
aI18
aI22
aI10
aI5
aI9
aI11
aI14
aI6
aa(lp32
I24
aI15
aI9
aI15
aI15
aI14
aI15
aI15
aI34
aI75
aI47
aI17
aI14
aI8
aI20
aI31
aI8
aI14
aI16
aI108
aI50
aI127
aI9
aI28
aI11
aI15
aI15
aI10
aI13
aI11
aI14
aI0
aI11
aI21
aI12
aI28
aI22
aI13
aI14
aI13
aI22
aI14
aI13
aI17
aI21
aI10
aI13
aI31
aI20
aI10
aI13
aI13
aI14
aI9
aI9
aI14
aI31
aI34
aI12
aI12
aI14
aI6
aI7
aI11
aa(lp33
I19
aI9
aI9
aI8
aI8
aI5
aI8
aI9
aI24
aI67
aI39
aI5
aI6
aI14
aI18
aI36
aI14
aI7
aI4
aI107
aI57
aI134
aI6
aI17
aI10
aI6
aI8
aI5
aI4
aI5
aI5
aI9
aI0
aI12
aI6
aI22
aI18
aI8
aI12
aI4
aI11
aI5
aI2
aI16
aI11
aI5
aI1
aI24
aI9
aI2
aI2
aI2
aI12
aI3
aI3
aI5
aI24
aI24
aI3
aI3
aI4
aI9
aI10
aI2
aa(lp34
I20
aI7
aI16
aI10
aI10
aI6
aI12
aI12
aI18
aI58
aI31
aI10
aI6
aI18
aI18
aI41
aI18
aI12
aI9
aI104
aI63
aI141
aI13
aI10
aI12
aI8
aI11
aI11
aI7
aI10
aI7
aI17
aI9
aI0
aI12
aI21
aI12
aI13
aI15
aI6
aI8
aI7
aI10
aI18
aI9
aI13
aI10
aI13
aI5
aI9
aI10
aI10
aI14
aI12
aI12
aI6
aI13
aI20
aI13
aI11
aI11
aI16
aI14
aI10
aa(lp35
I24
aI9
aI5
aI15
aI15
aI11
aI13
aI15
aI26
aI67
aI40
aI11
aI5
aI15
aI17
aI35
aI15
aI6
aI11
aI107
aI57
aI133
aI10
aI17
aI15
aI6
aI14
aI3
aI4
aI5
aI5
aI10
aI7
aI12
aI0
aI22
aI17
aI5
aI18
aI4
aI14
aI5
aI7
aI21
aI11
aI10
aI8
aI23
aI14
aI4
aI8
aI8
aI18
aI5
aI5
aI11
aI23
aI26
aI10
aI4
aI11
aI8
aI13
aI7
aa(lp36
I37
aI22
aI22
aI29
aI29
aI27
aI29
aI29
aI42
aI76
aI44
aI27
aI25
aI33
aI4
aI36
aI33
aI23
aI27
aI95
aI50
aI130
aI26
aI32
aI28
aI24
aI29
aI25
aI25
aI27
aI25
aI29
aI24
aI23
aI23
aI0
aI22
aI23
aI28
aI24
aI29
aI25
aI26
aI35
aI20
aI25
aI27
aI38
aI25
aI27
aI26
aI26
aI28
aI27
aI27
aI27
aI38
aI38
aI27
aI26
aI29
aI27
aI33
aI26
aa(lp37
I27
aI10
aI15
aI19
aI19
aI14
aI19
aI20
aI28
aI69
aI39
aI18
aI13
aI24
aI14
aI41
aI24
aI13
aI18
aI97
aI59
aI137
aI21
aI21
aI21
aI13
aI20
aI15
aI13
aI20
aI14
aI18
aI15
aI9
aI14
aI21
aI0
aI13
aI23
aI14
aI17
aI14
aI16
aI26
aI9
aI20
aI16
aI24
aI15
aI17
aI16
aI16
aI23
aI17
aI17
aI14
aI24
aI28
aI20
aI14
aI19
aI16
aI22
aI16
aa(lp38
I25
aI10
aI5
aI16
aI16
aI13
aI15
aI15
aI28
aI68
aI40
aI12
aI6
aI17
aI15
aI37
aI17
aI2
aI12
aI103
aI58
aI133
aI13
aI19
aI16
aI6
aI15
aI5
aI6
aI9
aI6
aI13
aI7
aI13
aI3
aI19
aI15
aI0
aI18
aI5
aI14
aI6
aI9
aI21
aI11
aI12
aI9
aI24
aI15
aI9
aI9
aI9
aI18
aI10
aI10
aI13
aI24
aI28
aI11
aI7
aI11
aI9
aI16
aI8
aa(lp39
I14
aI19
aI19
aI9
aI9
aI15
aI8
aI9
aI28
aI69
aI40
aI17
aI17
aI13
aI29
aI37
aI13
aI19
aI15
aI115
aI59
aI137
aI11
aI23
aI4
aI19
aI6
aI18
aI18
aI17
aI18
aI14
aI17
aI20
aI19
aI32
aI27
aI21
aI0
aI17
aI13
aI18
aI18
aI4
aI21
aI11
aI17
aI26
aI16
aI16
aI19
aI19
aI2
aI16
aI16
aI15
aI26
aI28
aI13
aI17
aI12
aI16
aI8
aI15
aa(lp40
I22
aI6
aI9
aI11
aI11
aI9
aI12
aI12
aI22
aI63
aI35
aI9
aI3
aI16
aI17
aI38
aI16
aI6
aI8
aI105
aI58
aI136
aI11
aI15
aI15
aI4
aI13
aI5
aI1
aI6
aI1
aI11
aI5
aI8
aI4
aI22
aI16
aI7
aI16
aI0
aI11
aI1
aI4
aI20
aI9
aI10
aI6
aI18
aI9
aI3
aI6
aI6
aI17
aI6
aI6
aI9
aI18
aI22
aI9
aI3
aI9
aI10
aI14
aI6
aa(lp41
I13
aI15
aI20
aI8
aI8
aI9
aI7
aI6
aI20
aI64
aI33
aI14
aI13
aI18
aI23
aI40
aI18
aI17
aI11
aI114
aI63
aI139
aI11
aI17
aI11
aI15
aI6
aI16
aI13
aI18
aI14
aI18
aI18
aI14
aI17
aI28
aI21
aI19
aI10
aI15
aI0
aI14
aI15
aI14
aI18
aI12
aI14
aI21
aI9
aI17
aI13
aI13
aI10
aI15
aI15
aI9
aI21
aI20
aI12
aI14
aI10
aI18
aI14
aI14
aa(lp42
I23
aI5
aI11
aI11
aI11
aI8
aI13
aI13
aI22
aI64
aI35
aI8
aI3
aI16
aI18
aI38
aI16
aI6
aI8
aI105
aI58
aI137
aI12
aI15
aI15
aI2
aI14
aI7
aI2
aI6
aI1
aI11
aI5
aI8
aI6
aI22
aI16
aI9
aI16
aI2
aI15
aI0
aI4
aI21
aI8
aI11
aI6
aI18
aI11
aI4
aI6
aI6
aI16
aI7
aI7
aI8
aI18
aI22
aI10
aI5
aI9
aI11
aI14
aI6
aa(lp43
I20
aI9
aI12
aI10
aI10
aI7
aI9
aI11
aI24
aI66
aI38
aI7
aI5
aI16
aI18
aI38
aI16
aI9
aI6
aI107
aI58
aI136
aI8
aI17
aI12
aI7
aI11
aI8
aI4
aI7
aI5
aI12
aI5
aI11
aI8
aI25
aI17
aI10
aI14
aI4
aI11
aI5
aI0
aI18
aI12
aI8
aI3
aI22
aI9
aI4
aI1
aI1
aI14
aI6
aI6
aI7
aI22
aI24
aI5
aI6
aI6
aI11
aI12
aI5
aa(lp44
I18
aI23
aI21
aI12
aI12
aI19
aI12
aI12
aI32
aI75
aI46
aI20
aI21
aI16
aI32
aI39
aI16
aI22
aI19
aI120
aI61
aI139
aI13
aI29
aI7
aI22
aI9
aI21
aI21
aI20
aI22
aI16
aI21
aI24
aI24
aI36
aI29
aI26
aI3
aI22
aI19
aI22
aI22
aI0
aI24
aI14
aI22
aI28
aI20
aI19
aI20
aI20
aI4
aI20
aI20
aI19
aI28
aI31
aI16
aI20
aI14
aI20
aI11
aI19
aa(lp45
I22
aI6
aI17
aI14
aI14
aI11
aI15
aI14
aI25
aI61
aI37
aI13
aI7
aI23
aI15
aI43
aI23
aI11
aI14
aI100
aI63
aI142
aI15
aI13
aI16
aI7
aI15
aI15
aI10
aI14
aI9
aI20
aI12
aI7
aI13
aI18
aI9
aI14
aI17
aI10
aI11
aI9
aI13
aI21
aI0
aI16
aI14
aI21
aI10
aI13
aI13
aI13
aI16
aI15
aI15
aI11
aI21
aI25
aI15
aI13
aI14
aI18
aI18
aI13
aa(lp46
I17
aI13
aI13
aI8
aI8
aI9
aI6
aI6
aI29
aI69
aI42
aI10
aI13
aI11
aI23
aI35
aI11
aI14
aI9
aI111
aI56
aI132
aI3
aI22
aI6
aI14
aI8
aI11
aI13
aI10
aI13
aI9
aI11
aI15
aI12
aI24
aI21
aI14
aI9
aI11
aI13
aI13
aI12
aI12
aI15
aI0
aI10
aI26
aI13
aI9
aI11
aI11
aI9
aI8
aI8
aI9
aI26
aI29
aI4
aI10
aI5
aI11
aI5
aI7
aa(lp47
I18
aI11
aI11
aI8
aI8
aI5
aI6
aI6
aI27
aI67
aI39
aI5
aI8
aI15
aI20
aI37
aI15
aI8
aI4
aI108
aI58
aI136
aI6
aI19
aI10
aI8
aI7
aI7
aI7
aI6
aI7
aI10
aI5
aI13
aI7
aI24
aI19
aI10
aI11
aI6
aI10
aI7
aI3
aI15
aI12
aI4
aI0
aI24
aI12
aI4
aI2
aI2
aI11
aI5
aI5
aI5
aI24
aI27
aI2
aI6
aI3
aI10
aI9
aI3
aa(lp48
I16
aI21
aI31
aI22
aI22
aI19
aI22
aI22
aI8
aI57
aI34
aI23
aI20
aI33
aI35
aI43
aI33
aI27
aI22
aI111
aI69
aI144
aI26
aI12
aI22
aI21
aI20
aI26
aI21
aI25
aI22
aI31
aI24
aI20
aI27
aI34
aI29
aI28
aI22
aI21
aI19
aI22
aI22
aI28
aI23
aI25
aI23
aI0
aI17
aI26
aI22
aI22
aI22
aI27
aI27
aI19
aI7
aI17
aI22
aI24
aI21
aI31
aI28
aI25
aa(lp49
I18
aI10
aI18
aI11
aI11
aI9
aI11
aI11
aI18
aI58
aI34
aI12
aI8
aI20
aI23
aI43
aI20
aI15
aI11
aI109
aI67
aI145
aI14
aI11
aI13
aI9
aI10
aI14
aI9
aI14
aI10
aI19
aI13
aI9
aI14
aI26
aI20
aI17
aI15
aI10
aI6
aI10
aI13
aI18
aI14
aI13
aI13
aI17
aI0
aI13
aI13
aI13
aI15
aI14
aI14
aI9
aI17
aI17
aI14
aI12
aI11
aI19
aI16
aI13
aa(lp50
I22
aI12
aI8
aI11
aI11
aI11
aI12
aI12
aI28
aI69
aI39
aI11
aI9
aI13
aI19
aI34
aI13
aI8
aI10
aI108
aI55
aI132
aI8
aI20
aI13
aI8
aI12
aI3
aI8
aI4
aI8
aI9
aI6
aI15
aI5
aI24
aI20
aI7
aI16
aI7
aI14
aI8
aI7
aI19
aI14
aI7
aI6
aI24
aI15
aI0
aI7
aI7
aI16
aI4
aI4
aI11
aI24
aI29
aI8
aI4
aI9
aI7
aI10
aI7
aa(lp51
I19
aI10
aI12
aI10
aI10
aI7
aI9
aI11
aI25
aI66
aI38
aI8
aI6
aI16
aI20
aI38
aI16
aI9
aI6
aI108
aI58
aI136
aI8
aI17
aI12
aI8
aI11
aI8
aI4
aI7
aI5
aI12
aI5
aI12
aI8
aI25
aI18
aI10
aI14
aI5
aI11
aI5
aI1
aI18
aI11
aI7
aI4
aI23
aI9
aI5
aI0
aI1
aI14
aI5
aI5
aI7
aI23
aI25
aI5
aI6
aI6
aI11
aI12
aI5
aa(lp52
I19
aI10
aI12
aI10
aI10
aI7
aI9
aI11
aI25
aI66
aI38
aI8
aI6
aI16
aI20
aI38
aI16
aI9
aI6
aI108
aI58
aI136
aI8
aI17
aI12
aI8
aI11
aI8
aI4
aI7
aI5
aI12
aI5
aI12
aI8
aI25
aI18
aI10
aI14
aI5
aI11
aI5
aI1
aI18
aI11
aI7
aI4
aI23
aI9
aI5
aI1
aI0
aI14
aI5
aI5
aI7
aI23
aI25
aI5
aI6
aI6
aI11
aI12
aI5
aa(lp53
I14
aI19
aI19
aI9
aI9
aI15
aI8
aI9
aI28
aI69
aI40
aI16
aI17
aI13
aI29
aI37
aI13
aI19
aI16
aI115
aI59
aI137
aI11
aI23
aI4
aI19
aI6
aI18
aI18
aI17
aI18
aI14
aI17
aI20
aI19
aI32
aI26
aI21
aI1
aI16
aI13
aI18
aI17
aI3
aI21
aI11
aI17
aI26
aI17
aI16
aI18
aI18
aI0
aI16
aI16
aI15
aI26
aI28
aI13
aI16
aI11
aI16
aI8
aI15
aa(lp54
I21
aI11
aI9
aI11
aI11
aI8
aI10
aI11
aI26
aI68
aI39
aI8
aI6
aI13
aI18
aI35
aI13
aI6
aI7
aI108
aI55
aI133
aI9
aI19
aI12
aI7
aI11
aI5
aI4
aI5
aI4
aI9
aI2
aI13
aI6
aI22
aI18
aI8
aI14
aI4
aI12
aI4
aI4
aI18
aI13
aI8
aI3
aI23
aI12
aI1
aI4
aI4
aI14
aI0
aI1
aI8
aI23
aI26
aI8
aI3
aI8
aI8
aI11
aI3
aa(lp55
I21
aI11
aI9
aI11
aI11
aI8
aI10
aI11
aI26
aI68
aI39
aI8
aI6
aI13
aI18
aI35
aI13
aI6
aI7
aI108
aI55
aI133
aI9
aI19
aI12
aI7
aI11
aI5
aI4
aI5
aI4
aI9
aI2
aI13
aI6
aI22
aI18
aI8
aI14
aI4
aI12
aI4
aI4
aI18
aI13
aI8
aI3
aI23
aI12
aI1
aI4
aI4
aI14
aI1
aI0
aI8
aI23
aI26
aI8
aI3
aI8
aI8
aI11
aI3
aa(lp56
I15
aI6
aI13
aI5
aI5
aI4
aI5
aI6
aI23
aI67
aI36
aI4
aI6
aI16
aI19
aI38
aI16
aI10
aI4
aI111
aI58
aI138
aI7
aI16
aI8
aI7
aI6
aI10
aI6
aI9
aI6
aI12
aI6
aI10
aI10
aI25
aI16
aI12
aI11
aI6
aI6
aI6
aI6
aI14
aI9
aI7
aI6
aI19
aI8
aI8
aI6
aI6
aI11
aI9
aI9
aI0
aI19
aI23
aI2
aI8
aI3
aI14
aI8
aI8
aa(lp57
I16
aI21
aI31
aI22
aI22
aI19
aI22
aI22
aI8
aI57
aI34
aI23
aI20
aI33
aI35
aI43
aI33
aI27
aI22
aI111
aI69
aI144
aI26
aI12
aI22
aI21
aI20
aI26
aI21
aI25
aI22
aI31
aI24
aI20
aI27
aI34
aI29
aI28
aI22
aI21
aI19
aI22
aI22
aI28
aI23
aI25
aI23
aI7
aI17
aI26
aI22
aI22
aI22
aI27
aI27
aI19
aI0
aI17
aI22
aI24
aI21
aI31
aI28
aI25
aa(lp58
I16
aI14
aI22
aI20
aI20
aI15
aI21
aI21
aI12
aI53
aI30
aI16
aI14
aI26
aI28
aI43
aI26
aI18
aI16
aI115
aI71
aI145
aI22
aI12
aI21
aI13
aI19
aI19
aI13
aI17
aI13
aI25
aI16
aI14
aI19
aI28
aI24
aI20
aI21
aI13
aI13
aI13
aI15
aI23
aI15
aI22
aI16
aI12
aI10
aI16
aI16
aI16
aI20
aI17
aI17
aI15
aI12
aI0
aI20
aI17
aI18
aI22
aI24
aI17
aa(lp59
I17
aI10
aI12
aI7
aI7
aI5
aI6
aI7
aI27
aI66
aI39
aI5
aI9
aI16
aI21
aI35
aI16
aI10
aI5
aI109
aI58
aI135
aI6
aI18
aI8
aI10
aI6
aI9
aI8
aI8
aI9
aI11
aI8
aI14
aI9
aI25
aI19
aI11
aI10
aI8
aI11
aI9
aI10
aI14
aI11
aI3
aI8
aI22
aI12
aI6
aI10
aI10
aI10
aI7
aI7
aI5
aI22
aI27
aI0
aI8
aI2
aI13
aI9
aI7
aa(lp60
I21
aI8
aI7
aI11
aI11
aI9
aI12
aI12
aI24
aI69
aI37
aI9
aI4
aI15
aI16
aI36
aI15
aI4
aI8
aI104
aI57
aI135
aI10
aI18
aI14
aI4
aI13
aI6
aI3
aI7
aI3
aI10
aI3
aI11
aI3
aI22
aI16
aI6
aI16
aI3
aI13
aI3
aI4
aI21
aI10
aI9
aI6
aI21
aI13
aI5
aI5
aI5
aI16
aI6
aI6
aI9
aI21
aI24
aI9
aI0
aI9
aI7
aI14
aI5
aa(lp61
I16
aI11
aI15
aI6
aI6
aI4
aI6
aI7
aI26
aI67
aI38
aI4
aI8
aI16
aI22
aI36
aI16
aI11
aI4
aI109
aI58
aI136
aI7
aI17
aI9
aI10
aI6
aI11
aI8
aI10
aI8
aI12
aI8
aI13
aI10
aI26
aI18
aI14
aI9
aI8
aI10
aI8
aI10
aI14
aI12
aI6
aI8
aI22
aI10
aI8
aI10
aI10
aI9
aI10
aI10
aI4
aI22
aI26
aI2
aI8
aI0
aI15
aI10
aI8
aa(lp62
I24
aI16
aI5
aI19
aI19
aI14
aI16
aI15
aI33
aI73
aI46
aI14
aI12
aI11
aI17
aI31
aI11
aI12
aI14
aI107
aI50
aI126
aI9
aI26
aI13
aI14
aI16
aI7
aI11
aI11
aI12
aI5
aI10
aI18
aI8
aI25
aI19
aI10
aI16
aI11
aI18
aI12
aI11
aI20
aI18
aI10
aI10
aI31
aI20
aI9
aI11
aI11
aI17
aI8
aI8
aI14
aI31
aI33
aI11
aI10
aI14
aI0
aI10
aI10
aa(lp63
I19
aI17
aI12
aI9
aI9
aI10
aI9
aI9
aI33
aI74
aI44
aI15
aI15
aI8
aI24
aI30
aI8
aI15
aI14
aI110
aI52
aI129
aI5
aI25
aI6
aI16
aI10
aI12
aI15
aI13
aI15
aI7
aI11
aI20
aI15
aI29
aI25
aI16
aI9
aI14
aI20
aI15
aI13
aI11
aI19
aI8
aI13
aI28
aI19
aI11
aI13
aI13
aI8
aI9
aI9
aI10
aI28
aI33
aI9
aI13
aI10
aI9
aI0
aI11
aa(lp64
I23
aI10
aI9
aI11
aI11
aI10
aI12
aI13
aI27
aI69
aI41
aI10
aI6
aI12
aI18
aI35
aI12
aI7
aI8
aI107
aI56
aI134
aI9
aI20
aI13
aI7
aI12
aI5
aI6
aI5
aI6
aI9
aI4
aI14
aI6
aI22
aI18
aI8
aI16
aI6
aI13
aI6
aI6
aI19
aI14
aI9
aI6
aI24
aI14
aI2
aI6
aI6
aI15
aI3
aI3
aI10
aI24
aI27
aI9
aI4
aI9
aI9
aI12
aI0
aa.