(lp0
(lp1
I0
aI25
aI20
aI17
aI19
aI19
aI42
aI69
aI21
aI21
aI20
aI19
aI33
aI24
aI18
aI17
aI24
aI19
aI17
aI17
aI20
aI30
aI11
aI16
aI41
aI42
aI20
aI19
aI25
aI18
aI22
aI116
aI21
aI12
aI145
aI24
aI39
aI16
aI25
aI18
aI14
aI13
aI18
aI12
aI22
aI11
aI16
aI21
aI21
aI21
aI11
aI16
aI16
aI23
aI23
aI5
aI21
aa(lp2
I25
aI0
aI11
aI12
aI13
aI11
aI49
aI50
aI8
aI32
aI9
aI16
aI44
aI7
aI11
aI9
aI9
aI15
aI11
aI12
aI11
aI17
aI19
aI13
aI18
aI33
aI11
aI10
aI10
aI15
aI10
aI107
aI8
aI15
aI127
aI4
aI38
aI10
aI11
aI8
aI26
aI15
aI11
aI16
aI5
aI16
aI11
aI12
aI16
aI12
aI22
aI11
aI11
aI11
aI11
aI24
aI12
aa(lp3
I17
aI9
aI0
aI3
aI4
aI1
aI47
aI57
aI3
aI24
aI3
aI5
aI39
aI10
aI1
aI7
aI6
aI7
aI6
aI5
aI14
aI17
aI10
aI5
aI27
aI36
aI14
aI5
aI7
aI5
aI6
aI107
aI10
aI8
aI134
aI8
aI36
aI6
aI9
aI5
aI17
aI10
aI6
aI8
aI5
aI9
aI10
aI5
aI11
aI2
aI10
aI10
aI10
aI9
aI9
aI17
aI4
aa(lp4
I15
aI12
aI8
aI0
aI9
aI7
aI50
aI58
aI8
aI27
aI6
aI5
aI39
aI12
aI7
aI7
aI8
aI5
aI10
aI9
aI16
aI21
aI9
aI2
aI29
aI35
aI16
aI8
aI10
aI5
aI9
aI109
aI12
aI5
aI135
aI10
aI37
aI6
aI11
aI6
aI18
aI8
aI10
aI6
aI9
aI7
aI8
aI8
aI11
aI10
aI12
aI9
aI8
aI11
aI11
aI15
aI8
aa(lp5
I17
aI12
aI6
aI5
aI0
aI6
aI45
aI59
aI7
aI26
aI4
aI3
aI38
aI13
aI5
aI9
aI9
aI5
aI7
aI6
aI17
aI21
aI11
aI7
aI31
aI38
aI17
aI6
aI9
aI7
aI8
aI109
aI13
aI8
aI137
aI11
aI36
aI8
aI11
aI6
aI16
aI11
aI8
aI9
aI8
aI10
aI11
aI7
aI14
aI8
aI12
aI11
aI11
aI10
aI10
aI15
aI6
aa(lp6
I19
aI9
aI2
aI9
aI7
aI0
aI48
aI56
aI5
aI27
aI6
aI9
aI41
aI10
aI1
aI9
aI7
aI10
aI7
aI7
aI13
aI18
aI14
aI9
aI27
aI36
aI13
aI5
aI7
aI8
aI7
aI107
aI10
aI9
aI134
aI8
aI37
aI9
aI10
aI6
aI21
aI12
aI7
aI12
aI5
aI13
aI12
aI6
aI13
aI5
aI15
aI11
aI11
aI9
aI9
aI19
aI4
aa(lp7
I38
aI50
aI45
aI49
aI47
aI47
aI0
aI67
aI46
aI38
aI47
aI46
aI43
aI53
aI47
aI50
aI47
aI46
aI42
aI42
aI52
aI41
aI45
aI47
aI49
aI49
aI52
aI45
aI48
aI47
aI44
aI104
aI53
aI45
aI145
aI49
aI29
aI49
aI48
aI49
aI36
aI49
aI42
aI45
aI49
aI45
aI51
aI46
aI42
aI48
aI46
aI51
aI51
aI44
aI44
aI38
aI46
aa(lp8
I73
aI50
aI58
aI60
aI61
aI58
aI72
aI0
aI56
aI81
aI61
aI61
aI76
aI49
aI58
aI53
aI58
aI64
aI61
aI61
aI48
aI50
aI66
aI60
aI43
aI37
aI48
aI57
aI57
aI61
aI60
aI117
aI49
aI64
aI23
aI54
aI67
aI57
aI60
aI58
aI74
aI59
aI60
aI62
aI53
aI64
aI52
aI57
aI64
aI59
aI67
aI52
aI52
aI60
aI60
aI74
aI59
aa(lp9
I22
aI6
aI6
aI10
aI8
aI7
aI44
aI55
aI0
aI25
aI7
aI11
aI41
aI10
aI6
aI10
aI4
aI11
aI5
aI5
aI14
aI16
aI16
aI10
aI24
aI35
aI14
aI1
aI6
aI11
aI4
aI105
aI10
aI12
aI133
aI4
aI33
aI10
aI8
aI9
aI17
aI14
aI5
aI14
aI3
aI14
aI13
aI5
aI11
aI7
aI17
aI13
aI12
aI6
aI6
aI21
aI3
aa(lp10
I16
aI32
aI25
aI26
aI24
aI25
aI36
aI72
aI26
aI0
aI26
aI25
aI30
aI33
aI25
aI28
aI28
aI25
aI21
aI22
aI34
aI37
aI21
aI24
aI37
aI38
aI34
aI24
aI28
aI24
aI24
aI114
aI32
aI22
aI144
aI30
aI39
aI27
aI31
aI26
aI14
aI26
aI22
aI22
aI28
aI21
aI30
aI27
aI23
aI26
aI20
aI29
aI29
aI26
aI26
aI12
aI27
aa(lp11
I16
aI15
aI7
aI3
aI7
aI3
aI48
aI58
aI8
aI27
aI0
aI4
aI39
aI13
aI3
aI7
aI9
aI5
aI10
aI8
aI15
aI20
aI9
aI3
aI29
aI37
aI15
aI8
aI10
aI3
aI9
aI110
aI11
aI6
aI135
aI11
aI37
aI6
aI12
aI3
aI19
aI10
aI10
aI7
aI10
aI7
aI8
aI9
aI13
aI8
aI12
aI8
aI8
aI12
aI12
aI15
aI9
aa(lp12
I16
aI12
aI7
aI2
aI6
aI2
aI47
aI58
aI6
aI27
aI2
aI0
aI39
aI13
aI2
aI8
aI7
aI5
aI9
aI8
aI16
aI20
aI10
aI3
aI29
aI37
aI16
aI6
aI8
aI4
aI8
aI108
aI12
aI7
aI136
aI8
aI37
aI7
aI11
aI5
aI19
aI10
aI8
aI8
aI7
aI8
aI10
aI7
aI12
aI7
aI11
aI10
aI10
aI11
aI11
aI15
aI6
aa(lp13
I33
aI44
aI38
aI41
aI38
aI39
aI48
aI47
aI39
aI41
aI40
aI40
aI0
aI44
aI39
aI42
aI39
aI41
aI36
aI36
aI47
aI46
aI38
aI39
aI49
aI36
aI47
aI37
aI40
aI39
aI37
aI107
aI45
aI37
aI140
aI43
aI49
aI41
aI40
aI41
aI33
aI41
aI36
aI40
aI41
aI38
aI44
aI40
aI38
aI40
aI35
aI44
aI43
aI39
aI39
aI36
aI38
aa(lp14
I23
aI6
aI9
aI8
aI12
aI8
aI53
aI50
aI9
aI33
aI12
aI14
aI46
aI0
aI8
aI6
aI11
aI15
aI13
aI12
aI11
aI20
aI18
aI13
aI21
aI31
aI11
aI10
aI12
aI13
aI12
aI108
aI5
aI15
aI127
aI6
aI40
aI8
aI14
aI6
aI27
aI11
aI13
aI15
aI6
aI15
aI8
aI9
aI19
aI11
aI20
aI8
aI9
aI13
aI13
aI23
aI10
aa(lp15
I20
aI9
aI2
aI7
aI8
aI1
aI48
aI56
aI5
aI28
aI5
aI9
aI41
aI10
aI0
aI6
aI7
aI10
aI7
aI7
aI12
aI19
aI14
aI9
aI29
aI35
aI12
aI5
aI8
aI8
aI6
aI107
aI10
aI9
aI134
aI8
aI36
aI7
aI10
aI5
aI21
aI12
aI7
aI10
aI5
aI13
aI9
aI6
aI15
aI6
aI15
aI9
aI10
aI10
aI10
aI20
aI5
aa(lp16
I19
aI10
aI10
aI6
aI11
aI6
aI53
aI54
aI10
aI31
aI11
aI13
aI43
aI7
aI7
aI0
aI13
aI12
aI14
aI13
aI11
aI23
aI13
aI7
aI25
aI34
aI11
aI11
aI13
aI12
aI13
aI110
aI8
aI10
aI131
aI10
aI42
aI2
aI15
aI6
aI22
aI8
aI14
aI11
aI9
aI12
aI6
aI10
aI16
aI11
aI17
aI6
aI6
aI14
aI14
aI18
aI10
aa(lp17
I24
aI5
aI8
aI11
aI10
aI8
aI44
aI60
aI4
aI28
aI10
aI10
aI40
aI13
aI9
aI11
aI0
aI12
aI7
aI7
aI17
aI15
aI17
aI12
aI26
aI38
aI17
aI6
aI3
aI12
aI5
aI103
aI13
aI14
aI134
aI5
aI33
aI13
aI7
aI12
aI20
aI17
aI7
aI15
aI6
aI16
aI16
aI8
aI11
aI9
aI18
aI16
aI15
aI5
aI5
aI22
aI8
aa(lp18
I16
aI12
aI7
aI2
aI6
aI3
aI49
aI58
aI6
aI27
aI1
aI2
aI39
aI13
aI3
aI7
aI8
aI0
aI9
aI8
aI16
aI20
aI10
aI3
aI29
aI37
aI16
aI6
aI9
aI3
aI8
aI109
aI12
aI7
aI135
aI8
aI38
aI7
aI11
aI4
aI19
aI9
aI8
aI7
aI7
aI8
aI9
aI7
aI12
aI8
aI11
aI9
aI10
aI11
aI11
aI15
aI6
aa(lp19
I21
aI11
aI7
aI12
aI7
aI8
aI42
aI59
aI9
aI21
aI9
aI8
aI36
aI14
aI8
aI14
aI8
aI8
aI0
aI2
aI19
aI18
aI12
aI11
aI29
aI41
aI19
aI6
aI8
aI8
aI4
aI105
aI15
aI10
aI139
aI11
aI31
aI14
aI7
aI11
aI13
aI14
aI2
aI14
aI10
aI12
aI16
aI9
aI6
aI9
aI12
aI16
aI17
aI7
aI7
aI17
aI9
aa(lp20
I21
aI12
aI7
aI11
aI7
aI8
aI42
aI58
aI9
aI20
aI8
aI9
aI36
aI14
aI8
aI14
aI8
aI9
aI2
aI0
aI19
aI18
aI14
aI9
aI30
aI41
aI19
aI7
aI8
aI8
aI5
aI106
aI15
aI10
aI139
aI11
aI31
aI14
aI7
aI10
aI12
aI14
aI2
aI14
aI10
aI13
aI16
aI9
aI6
aI7
aI12
aI16
aI17
aI7
aI7
aI16
aI8
aa(lp21
I21
aI12
aI14
aI14
aI18
aI14
aI55
aI49
aI15
aI38
aI18
aI18
aI49
aI10
aI14
aI11
aI18
aI18
aI18
aI17
aI0
aI25
aI18
aI13
aI24
aI21
aI4
aI15
aI18
aI18
aI18
aI108
aI7
aI15
aI127
aI14
aI45
aI11
aI21
aI14
aI32
aI11
aI19
aI12
aI13
aI15
aI7
aI15
aI23
aI16
aI24
aI7
aI8
aI19
aI19
aI21
aI14
aa(lp22
I30
aI19
aI19
aI23
aI22
aI19
aI39
aI52
aI20
aI37
aI22
aI24
aI45
aI21
aI20
aI22
aI17
aI24
aI19
aI18
aI27
aI0
aI23
aI24
aI19
aI36
aI27
aI18
aI18
aI24
aI18
aI95
aI25
aI23
aI132
aI16
aI28
aI21
aI17
aI21
aI25
aI25
aI19
aI24
aI18
aI24
aI24
aI20
aI21
aI20
aI23
aI25
aI24
aI15
aI15
aI27
aI21
aa(lp23
I10
aI19
aI12
aI10
aI11
aI11
aI45
aI63
aI13
aI23
aI13
aI12
aI37
aI15
aI11
aI10
aI16
aI12
aI14
aI13
aI15
aI23
aI0
aI10
aI33
aI38
aI15
aI14
aI15
aI10
aI15
aI111
aI15
aI4
aI138
aI17
aI36
aI9
aI17
aI9
aI15
aI9
aI14
aI7
aI14
aI2
aI11
aI13
aI16
aI13
aI7
aI11
aI11
aI17
aI17
aI9
aI13
aa(lp24
I15
aI15
aI8
aI2
aI6
aI8
aI47
aI58
aI9
aI26
aI6
aI4
aI38
aI13
aI8
aI8
aI10
aI4
aI10
aI8
aI16
aI22
aI10
aI0
aI31
aI36
aI16
aI8
aI11
aI4
aI10
aI109
aI12
aI4
aI136
aI13
aI36
aI7
aI12
aI6
aI17
aI9
aI10
aI6
aI11
aI7
aI10
aI10
aI12
aI8
aI12
aI10
aI10
aI12
aI12
aI13
aI8
aa(lp25
I39
aI19
aI27
aI28
aI30
aI27
aI48
aI42
aI24
aI48
aI28
aI28
aI48
aI20
aI26
aI25
aI23
aI30
aI30
aI30
aI20
aI21
aI34
aI30
aI0
aI34
aI20
aI27
aI24
aI30
aI27
aI101
aI21
aI34
aI123
aI21
aI38
aI27
aI24
aI27
aI42
aI31
aI30
aI31
aI23
aI33
aI25
aI25
aI33
aI28
aI37
aI25
aI24
aI27
aI27
aI39
aI26
aa(lp26
I40
aI30
aI38
aI40
aI41
aI36
aI57
aI22
aI39
aI58
aI40
aI42
aI59
aI29
aI36
aI34
aI40
aI42
aI41
aI40
aI23
aI32
aI43
aI40
aI29
aI0
aI23
aI39
aI39
aI41
aI41
aI117
aI28
aI40
aI116
aI32
aI56
aI35
aI39
aI36
aI43
aI36
aI40
aI40
aI34
aI41
aI31
aI38
aI41
aI41
aI43
aI31
aI30
aI41
aI41
aI43
aI38
aa(lp27
I21
aI12
aI14
aI14
aI18
aI14
aI55
aI49
aI15
aI38
aI18
aI18
aI49
aI10
aI14
aI11
aI18
aI18
aI18
aI17
aI4
aI25
aI18
aI13
aI24
aI21
aI0
aI15
aI18
aI18
aI18
aI108
aI7
aI15
aI127
aI14
aI45
aI11
aI21
aI14
aI32
aI11
aI19
aI12
aI13
aI15
aI7
aI15
aI23
aI16
aI24
aI7
aI8
aI19
aI19
aI21
aI14
aa(lp28
I20
aI8
aI4
aI10
aI7
aI5
aI44
aI56
aI3
aI23
aI6
aI9
aI36
aI11
aI5
aI10
aI5
aI9
aI4
aI3
aI15
aI17
aI14
aI10
aI26
aI35
aI15
aI0
aI7
aI9
aI2
aI105
aI10
aI11
aI134
aI8
aI32
aI10
aI7
aI8
aI17
aI15
aI4
aI14
aI5
aI13
aI14
aI5
aI9
aI5
aI13
aI14
aI13
aI6
aI6
aI18
aI4
aa(lp29
I24
aI7
aI7
aI11
aI11
aI8
aI44
aI60
aI5
aI28
aI9
aI10
aI41
aI14
aI8
aI11
aI2
aI12
aI7
aI6
aI18
aI15
aI17
aI12
aI24
aI37
aI18
aI6
aI0
aI12
aI4
aI103
aI13
aI14
aI134
aI6
aI34
aI13
aI8
aI11
aI18
aI16
aI6
aI15
aI5
aI15
aI16
aI8
aI11
aI9
aI17
aI15
aI14
aI7
aI7
aI23
aI8
aa(lp30
I16
aI13
aI7
aI3
aI7
aI6
aI46
aI58
aI8
aI26
aI5
aI4
aI38
aI14
aI5
aI8
aI9
aI4
aI9
aI7
aI16
aI21
aI9
aI4
aI31
aI37
aI16
aI8
aI10
aI0
aI9
aI111
aI12
aI6
aI136
aI11
aI36
aI7
aI12
aI4
aI18
aI10
aI9
aI7
aI10
aI7
aI10
aI8
aI12
aI7
aI12
aI10
aI10
aI12
aI12
aI15
aI7
aa(lp31
I22
aI9
aI6
aI11
aI9
aI6
aI43
aI60
aI5
aI24
aI9
aI10
aI36
aI14
aI7
aI12
aI3
aI10
aI3
aI4
aI18
aI16
aI16
aI11
aI26
aI38
aI18
aI4
aI3
aI10
aI0
aI104
aI13
aI13
aI137
aI7
aI32
aI13
aI6
aI12
aI15
aI16
aI3
aI14
aI7
aI15
aI16
aI7
aI8
aI8
aI16
aI16
aI14
aI5
aI5
aI19
aI6
aa(lp32
I119
aI109
aI108
aI113
aI111
aI108
aI93
aI114
aI107
aI118
aI110
aI111
aI113
aI108
aI108
aI112
aI107
aI112
aI106
aI106
aI114
aI92
aI114
aI113
aI100
aI114
aI114
aI106
aI106
aI111
aI106
aI0
aI108
aI114
aI194
aI105
aI87
aI114
aI102
aI110
aI111
aI115
aI107
aI113
aI109
aI114
aI111
aI106
aI103
aI110
aI111
aI111
aI111
aI105
aI105
aI118
aI107
aa(lp33
I22
aI9
aI12
aI12
aI14
aI11
aI54
aI50
aI13
aI35
aI14
aI17
aI47
aI5
aI10
aI7
aI14
aI16
aI15
aI14
aI9
aI20
aI18
aI13
aI21
aI31
aI9
aI13
aI15
aI16
aI14
aI108
aI0
aI14
aI127
aI9
aI42
aI8
aI16
aI9
aI28
aI10
aI16
aI13
aI10
aI18
aI5
aI12
aI22
aI12
aI21
aI5
aI6
aI17
aI17
aI22
aI13
aa(lp34
I10
aI19
aI13
aI11
aI12
aI11
aI45
aI63
aI12
aI27
aI13
aI12
aI38
aI15
aI10
aI10
aI14
aI11
aI12
aI12
aI15
aI21
aI4
aI9
aI33
aI38
aI15
aI13
aI15
aI11
aI14
aI111
aI14
aI0
aI139
aI17
aI36
aI8
aI16
aI9
aI19
aI8
aI13
aI4
aI14
aI2
aI10
aI13
aI19
aI13
aI9
aI10
aI10
aI16
aI16
aI11
aI12
aa(lp35
I143
aI126
aI134
aI136
aI139
aI133
aI143
aI104
aI133
aI142
aI135
aI135
aI144
aI124
aI133
aI130
aI135
aI139
aI136
aI136
aI123
aI131
aI143
aI136
aI123
aI115
aI123
aI134
aI135
aI139
aI135
aI143
aI123
aI139
aI0
aI130
aI144
aI132
aI136
aI134
aI143
aI135
aI136
aI137
aI130
aI144
aI129
aI134
aI138
aI135
aI143
aI129
aI129
aI135
aI135
aI144
aI134
aa(lp36
I23
aI3
aI9
aI9
aI11
aI8
aI49
aI52
aI6
aI29
aI9
aI15
aI40
aI8
aI8
aI8
aI7
aI14
aI10
aI9
aI13
aI16
aI17
aI13
aI20
aI33
aI13
aI6
aI7
aI13
aI8
aI107
aI9
aI13
aI133
aI0
aI36
aI8
aI10
aI7
aI21
aI14
aI9
aI14
aI3
aI15
aI11
aI10
aI15
aI10
aI19
aI11
aI11
aI9
aI9
aI23
aI8
aa(lp37
I46
aI41
aI39
aI40
aI39
aI39
aI30
aI59
aI39
aI45
aI40
aI39
aI54
aI45
aI39
aI43
aI40
aI39
aI35
aI35
aI46
aI35
aI41
aI40
aI39
aI55
aI46
aI37
aI39
aI39
aI36
aI51
aI44
aI41
aI147
aI40
aI0
aI41
aI36
aI41
aI35
aI44
aI34
aI43
aI41
aI41
aI44
aI39
aI32
aI39
aI40
aI44
aI44
aI36
aI36
aI44
aI39
aa(lp38
I16
aI11
aI10
aI4
aI9
aI5
aI52
aI57
aI9
aI29
aI11
aI10
aI40
aI9
aI6
aI4
aI11
aI10
aI13
aI11
aI12
aI23
aI11
aI5
aI29
aI34
aI12
aI9
aI11
aI9
aI11
aI111
aI9
aI9
aI133
aI11
aI40
aI0
aI14
aI5
aI21
aI7
aI13
aI8
aI10
aI10
aI7
aI10
aI14
aI11
aI14
aI7
aI7
aI12
aI12
aI16
aI9
aa(lp39
I26
aI10
aI9
aI14
aI11
aI9
aI42
aI60
aI10
aI28
aI13
aI12
aI40
aI17
aI10
aI17
aI7
aI13
aI7
aI9
aI19
aI15
aI19
aI13
aI25
aI39
aI19
aI9
aI7
aI14
aI6
aI103
aI17
aI15
aI134
aI10
aI31
aI16
aI0
aI14
aI20
aI18
aI7
aI17
aI8
aI17
aI19
aI13
aI8
aI11
aI18
aI19
aI19
aI4
aI4
aI23
aI13
aa(lp40
I17
aI11
aI8
aI6
aI9
aI5
aI49
aI57
aI6
aI30
aI8
aI11
aI40
aI11
aI4
aI6
aI8
aI12
aI11
aI10
aI13
aI20
aI11
aI7
aI29
aI35
aI13
aI7
aI9
aI10
aI9
aI110
aI9
aI8
aI134
aI10
aI37
aI4
aI11
aI0
aI21
aI9
aI10
aI9
aI8
aI10
aI8
aI7
aI15
aI9
aI13
aI8
aI8
aI11
aI11
aI18
aI7
aa(lp41
I15
aI24
aI18
aI19
aI16
aI19
aI36
aI68
aI19
aI15
aI19
aI19
aI29
aI26
aI19
aI21
aI22
aI18
aI15
aI15
aI28
aI27
aI15
aI18
aI37
aI44
aI28
aI17
aI22
aI17
aI19
aI107
aI26
aI17
aI144
aI23
aI33
aI20
aI22
aI19
aI0
aI20
aI17
aI17
aI20
aI15
aI23
aI20
aI19
aI19
aI13
aI23
aI23
aI19
aI19
aI10
aI19
aa(lp42
I13
aI18
aI16
aI11
aI14
aI15
aI53
aI57
aI16
aI28
aI16
aI16
aI40
aI12
aI15
aI8
aI17
aI16
aI17
aI17
aI12
aI26
aI11
aI10
aI30
aI33
aI12
aI17
aI18
aI14
aI17
aI115
aI11
aI9
aI135
aI17
aI43
aI8
aI20
aI13
aI23
aI0
aI18
aI5
aI16
aI9
aI5
aI15
aI19
aI18
aI13
aI5
aI4
aI20
aI20
aI13
aI15
aa(lp43
I21
aI10
aI8
aI9
aI8
aI8
aI42
aI61
aI8
aI23
aI10
aI9
aI35
aI16
aI8
aI13
aI7
aI9
aI1
aI2
aI18
aI17
aI14
aI9
aI28
aI40
aI18
aI5
aI7
aI9
aI4
aI104
aI15
aI12
aI137
aI10
aI31
aI14
aI6
aI12
aI13
aI16
aI0
aI14
aI9
aI14
aI15
aI9
aI6
aI10
aI13
aI15
aI15
aI6
aI6
aI17
aI9
aa(lp44
I11
aI20
aI15
aI10
aI16
aI11
aI49
aI58
aI14
aI25
aI15
aI14
aI40
aI16
aI12
aI10
aI16
aI14
aI15
aI15
aI14
aI25
aI6
aI9
aI32
aI37
aI14
aI14
aI17
aI14
aI16
aI115
aI14
aI3
aI138
aI17
aI37
aI8
aI19
aI10
aI20
aI6
aI15
aI0
aI15
aI5
aI10
aI14
aI18
aI14
aI9
aI10
aI10
aI18
aI18
aI13
aI13
aa(lp45
I21
aI5
aI8
aI8
aI11
aI8
aI49
aI52
aI5
aI29
aI8
aI12
aI41
aI8
aI8
aI7
aI8
aI12
aI10
aI9
aI11
aI18
aI16
aI10
aI23
aI33
aI11
aI7
aI9
aI11
aI9
aI107
aI7
aI12
aI131
aI3
aI37
aI7
aI13
aI6
aI21
aI12
aI10
aI12
aI0
aI13
aI9
aI7
aI15
aI8
aI16
aI10
aI10
aI11
aI11
aI21
aI7
aa(lp46
I10
aI19
aI12
aI11
aI12
aI11
aI45
aI63
aI12
aI24
aI12
aI11
aI36
aI15
aI11
aI9
aI16
aI11
aI11
aI11
aI15
aI22
aI2
aI9
aI33
aI38
aI15
aI13
aI15
aI12
aI14
aI111
aI15
aI1
aI138
aI17
aI36
aI8
aI17
aI8
aI15
aI9
aI12
aI5
aI14
aI0
aI11
aI13
aI13
aI12
aI7
aI11
aI11
aI16
aI16
aI9
aI12
aa(lp47
I18
aI12
aI11
aI9
aI13
aI11
aI55
aI52
aI13
aI33
aI13
aI15
aI44
aI8
aI10
aI4
aI14
aI15
aI16
aI15
aI8
aI24
aI15
aI10
aI25
aI30
aI8
aI14
aI15
aI14
aI15
aI110
aI6
aI11
aI129
aI11
aI43
aI5
aI17
aI8
aI25
aI6
aI16
aI10
aI12
aI12
aI0
aI13
aI19
aI13
aI18
aI1
aI1
aI17
aI17
aI18
aI13
aa(lp48
I23
aI8
aI7
aI9
aI9
aI7
aI47
aI55
aI2
aI27
aI8
aI12
aI40
aI9
aI7
aI8
aI6
aI12
aI8
aI7
aI13
aI18
aI16
aI10
aI25
aI34
aI13
aI5
aI8
aI11
aI7
aI107
aI9
aI12
aI133
aI7
aI36
aI9
aI10
aI7
aI19
aI14
aI7
aI14
aI4
aI15
aI12
aI0
aI14
aI7
aI17
aI12
aI11
aI9
aI9
aI22
aI1
aa(lp49
I22
aI17
aI12
aI15
aI13
aI13
aI38
aI63
aI12
aI25
aI14
aI14
aI37
aI21
aI13
aI16
aI10
aI13
aI7
aI7
aI23
aI15
aI14
aI14
aI31
aI43
aI23
aI11
aI11
aI14
aI9
aI100
aI20
aI13
aI142
aI14
aI29
aI15
aI10
aI16
aI13
aI16
aI7
aI15
aI15
aI14
aI18
aI14
aI0
aI14
aI14
aI18
aI17
aI8
aI8
aI18
aI13
aa(lp50
I17
aI11
aI3
aI5
aI5
aI2
aI46
aI58
aI5
aI25
aI4
aI6
aI38
aI11
aI1
aI7
aI7
aI7
aI7
aI6
aI16
aI20
aI11
aI5
aI29
aI38
aI16
aI5
aI9
aI6
aI7
aI108
aI10
aI7
aI136
aI9
aI35
aI6
aI11
aI6
aI17
aI11
aI8
aI8
aI7
aI9
aI10
aI6
aI12
aI0
aI10
aI10
aI10
aI10
aI10
aI17
aI5
aa(lp51
I11
aI21
aI14
aI13
aI14
aI13
aI42
aI65
aI16
aI23
aI14
aI14
aI36
aI20
aI13
aI14
aI19
aI14
aI10
aI11
aI20
aI25
aI5
aI12
aI36
aI40
aI20
aI14
aI19
aI13
aI16
aI111
aI18
aI7
aI139
aI18
aI33
aI13
aI21
aI13
aI16
aI11
aI12
aI8
aI16
aI6
aI15
aI16
aI17
aI14
aI0
aI15
aI15
aI19
aI19
aI9
aI17
aa(lp52
I18
aI12
aI11
aI9
aI13
aI11
aI55
aI52
aI13
aI33
aI12
aI15
aI44
aI8
aI10
aI4
aI14
aI15
aI16
aI15
aI8
aI24
aI14
aI10
aI25
aI30
aI8
aI14
aI15
aI14
aI15
aI110
aI6
aI11
aI129
aI11
aI41
aI5
aI17
aI8
aI25
aI6
aI16
aI10
aI12
aI12
aI1
aI13
aI19
aI13
aI18
aI0
aI1
aI18
aI18
aI18
aI13
aa(lp53
I18
aI11
aI11
aI9
aI13
aI11
aI56
aI51
aI13
aI32
aI13
aI15
aI44
aI7
aI10
aI4
aI15
aI15
aI17
aI15
aI8
aI24
aI14
aI10
aI24
aI30
aI8
aI14
aI16
aI15
aI16
aI112
aI6
aI11
aI129
aI11
aI43
aI4
aI18
aI8
aI25
aI5
aI16
aI10
aI11
aI12
aI2
aI13
aI19
aI13
aI18
aI2
aI0
aI18
aI18
aI18
aI12
aa(lp54
I23
aI9
aI7
aI11
aI10
aI7
aI42
aI60
aI6
aI27
aI9
aI11
aI36
aI15
aI8
aI13
aI4
aI12
aI6
aI7
aI18
aI15
aI17
aI12
aI26
aI38
aI18
aI6
aI5
aI12
aI4
aI104
aI15
aI14
aI137
aI7
aI30
aI13
aI4
aI13
aI16
aI17
aI6
aI15
aI8
aI16
aI17
aI11
aI8
aI9
aI18
aI16
aI17
aI0
aI2
aI19
aI10
aa(lp55
I23
aI9
aI7
aI11
aI10
aI7
aI42
aI60
aI6
aI27
aI9
aI11
aI36
aI15
aI8
aI13
aI4
aI12
aI6
aI7
aI18
aI15
aI17
aI12
aI26
aI38
aI18
aI6
aI5
aI12
aI4
aI104
aI15
aI14
aI137
aI7
aI30
aI13
aI4
aI13
aI16
aI17
aI6
aI15
aI8
aI16
aI17
aI11
aI8
aI9
aI18
aI16
aI17
aI2
aI0
aI19
aI10
aa(lp56
I6
aI23
aI17
aI15
aI16
aI17
aI40
aI72
aI17
aI17
aI17
aI16
aI30
aI23
aI17
aI18
aI18
aI16
aI13
aI13
aI21
aI27
aI10
aI14
aI41
aI41
aI21
aI16
aI20
aI14
aI17
aI115
aI21
aI10
aI145
aI22
aI38
aI15
aI19
aI17
aI11
aI12
aI15
aI12
aI20
aI10
aI16
aI16
aI17
aI17
aI11
aI16
aI16
aI18
aI18
aI0
aI16
aa(lp57
I23
aI8
aI6
aI10
aI8
aI6
aI47
aI55
aI3
aI26
aI7
aI12
aI39
aI9
aI6
aI8
aI4
aI13
aI7
aI7
aI13
aI18
aI16
aI10
aI26
aI34
aI13
aI4
aI7
aI11
aI5
aI106
aI10
aI12
aI133
aI7
aI33
aI9
aI9
aI7
aI19
aI13
aI6
aI14
aI3
aI15
aI11
aI2
aI10
aI7
aI16
aI11
aI11
aI9
aI9
aI21
aI0
aa.