(lp0
(lp1
I0
aI10
aI12
aI15
aI38
aI13
aI21
aI14
aI16
aI10
aI12
aI37
aI20
aI10
aI18
aI16
aI8
aI15
aI11
aI14
aI14
aI3
aI11
aI14
aI17
aI16
aI12
aI13
aI13
aI14
aI18
aI15
aI15
aI11
aI18
aa(lp2
I8
aI0
aI18
aI19
aI36
aI19
aI25
aI20
aI21
aI14
aI18
aI36
aI25
aI15
aI23
aI21
aI13
aI20
aI16
aI19
aI18
aI10
aI16
aI19
aI20
aI10
aI18
aI18
aI18
aI19
aI17
aI20
aI20
aI18
aI23
aa(lp3
I14
aI21
aI0
aI9
aI48
aI12
aI10
aI9
aI13
aI11
aI6
aI30
aI9
aI8
aI13
aI5
aI9
aI10
aI14
aI13
aI13
aI15
aI13
aI14
aI5
aI27
aI14
aI11
aI13
aI13
aI29
aI6
aI5
aI6
aI5
aa(lp4
I14
aI20
aI9
aI0
aI48
aI9
aI10
aI1
aI7
aI14
aI9
aI27
aI10
aI9
aI8
aI9
aI13
aI3
aI7
aI7
aI5
aI14
aI7
aI5
aI12
aI24
aI6
aI4
aI5
aI6
aI27
aI9
aI9
aI12
aI11
aa(lp5
I42
aI36
aI45
aI47
aI0
aI46
aI53
aI47
aI47
aI45
aI47
aI49
aI53
aI45
aI49
aI50
aI45
aI48
aI44
aI45
aI46
aI41
aI43
aI48
aI50
aI36
aI45
aI46
aI46
aI47
aI38
aI49
aI50
aI46
aI51
aa(lp6
I13
aI18
aI7
aI2
aI47
aI0
aI13
aI2
aI7
aI10
aI3
aI29
aI12
aI7
aI8
aI8
aI8
aI5
aI8
aI7
aI6
aI13
aI7
aI7
aI11
aI23
aI7
aI5
aI7
aI7
aI27
aI2
aI6
aI7
aI10
aa(lp7
I20
aI25
aI16
aI8
aI53
aI14
aI0
aI8
aI11
aI18
aI13
aI21
aI5
aI15
aI6
aI6
aI15
aI6
aI12
aI11
aI10
aI21
aI11
aI11
aI9
aI31
aI11
aI10
aI11
aI10
aI33
aI8
aI10
aI14
aI9
aa(lp8
I16
aI19
aI9
aI1
aI48
aI9
aI10
aI0
aI7
aI14
aI9
aI29
aI10
aI9
aI8
aI6
aI13
aI3
aI6
aI7
aI6
aI16
aI6
aI6
aI12
aI24
aI5
aI4
aI5
aI5
aI28
aI7
aI7
aI12
aI10
aa(lp9
I18
aI19
aI17
aI8
aI44
aI10
aI13
aI9
aI0
aI17
aI12
aI26
aI13
aI14
aI5
aI11
aI16
aI8
aI7
aI9
aI8
aI17
aI6
aI9
aI17
aI23
aI9
aI5
aI9
aI9
aI28
aI11
aI14
aI16
aI15
aa(lp10
I8
aI14
aI6
aI11
aI45
aI12
aI15
aI11
aI16
aI0
aI10
aI33
aI15
aI4
aI17
aI10
aI2
aI12
aI12
aI14
aI13
aI7
aI12
aI13
aI9
aI19
aI12
aI13
aI15
aI12
aI22
aI10
aI8
aI5
aI11
aa(lp11
I10
aI17
aI6
aI8
aI47
aI4
aI13
aI8
aI10
aI10
aI0
aI31
aI12
aI4
aI13
aI8
aI7
aI9
aI8
aI10
aI9
aI11
aI8
aI8
aI10
aI22
aI10
aI8
aI10
aI7
aI26
aI2
aI7
aI7
aI10
aa(lp12
I37
aI41
aI32
aI27
aI48
aI28
aI20
aI26
aI23
aI34
aI30
aI0
aI21
aI34
aI21
aI25
aI33
aI23
aI29
aI28
aI26
aI38
aI27
aI28
aI26
aI46
aI28
aI24
aI28
aI28
aI47
aI28
aI28
aI31
aI24
aa(lp13
I21
aI27
aI13
aI11
aI54
aI17
aI5
aI10
aI14
aI18
aI13
aI21
aI0
aI14
aI9
aI7
aI18
aI7
aI14
aI13
aI13
aI21
aI13
aI12
aI8
aI32
aI14
aI12
aI13
aI13
aI35
aI12
aI12
aI13
aI6
aa(lp14
I11
aI18
aI5
aI11
aI45
aI12
aI15
aI10
aI14
aI4
aI9
aI33
aI14
aI0
aI17
aI10
aI2
aI13
aI12
aI15
aI12
aI11
aI12
aI13
aI9
aI22
aI13
aI12
aI13
aI12
aI27
aI11
aI9
aI4
aI10
aa(lp15
I18
aI20
aI16
aI8
aI49
aI15
aI8
aI8
aI7
aI17
aI13
aI20
aI9
aI13
aI0
aI8
aI15
aI4
aI8
aI9
aI9
aI18
aI6
aI10
aI14
aI26
aI9
aI6
aI10
aI9
aI30
aI9
aI9
aI16
aI11
aa(lp16
I17
aI22
aI9
aI6
aI53
aI13
aI7
aI7
aI13
aI13
aI7
aI25
aI8
aI10
aI10
aI0
aI12
aI7
aI13
aI12
aI11
aI17
aI12
aI11
aI8
aI27
aI12
aI11
aI12
aI11
aI30
aI6
aI5
aI8
aI6
aa(lp17
I8
aI15
aI5
aI11
aI45
aI11
aI15
aI11
aI16
aI2
aI9
aI33
aI15
aI1
aI17
aI9
aI0
aI12
aI12
aI14
aI12
aI7
aI11
aI12
aI9
aI19
aI12
aI12
aI12
aI12
aI23
aI11
aI9
aI4
aI11
aa(lp18
I15
aI19
aI13
aI4
aI48
aI10
aI7
aI4
aI7
aI15
aI9
aI24
aI7
aI10
aI6
aI6
aI12
aI0
aI7
aI5
aI4
aI15
aI6
aI5
aI12
aI24
aI6
aI4
aI6
aI5
aI27
aI7
aI8
aI13
aI9
aa(lp19
I12
aI14
aI11
aI5
aI42
aI8
aI12
aI5
aI4
aI14
aI9
aI28
aI11
aI12
aI9
aI12
aI13
aI6
aI0
aI4
aI6
aI12
aI2
aI6
aI16
aI18
aI4
aI4
aI6
aI7
aI22
aI10
aI11
aI13
aI14
aa(lp20
I10
aI15
aI10
aI3
aI47
aI8
aI13
aI4
aI7
aI12
aI6
aI30
aI12
aI9
aI10
aI9
aI11
aI6
aI5
aI0
aI7
aI11
aI4
aI2
aI13
aI22
aI1
aI6
aI1
aI4
aI24
aI5
aI9
aI11
aI11
aa(lp21
I16
aI17
aI14
aI6
aI46
aI12
aI9
aI6
aI4
aI17
aI10
aI26
aI10
aI12
aI7
aI8
aI15
aI3
aI6
aI7
aI0
aI15
aI5
aI8
aI14
aI21
aI8
aI2
aI8
aI7
aI27
aI9
aI9
aI14
aI11
aa(lp22
I4
aI8
aI10
aI15
aI39
aI13
aI21
aI14
aI16
aI8
aI11
aI37
aI19
aI9
aI19
aI16
aI7
aI15
aI12
aI14
aI15
aI0
aI12
aI15
aI17
aI14
aI13
aI14
aI14
aI14
aI17
aI15
aI15
aI10
aI17
aa(lp23
I13
aI14
aI11
aI5
aI42
aI9
aI11
aI5
aI5
aI13
aI9
aI26
aI11
aI11
aI8
aI11
aI12
aI5
aI1
aI4
aI6
aI12
aI0
aI6
aI15
aI18
aI5
aI2
aI6
aI6
aI22
aI9
aI10
aI12
aI14
aa(lp24
I10
aI17
aI9
aI2
aI46
aI6
aI11
aI1
aI7
aI11
aI5
aI29
aI10
aI7
aI9
aI7
aI9
aI4
aI5
aI1
aI6
aI11
aI5
aI0
aI12
aI22
aI2
aI5
aI1
aI2
aI25
aI5
aI7
aI9
aI10
aa(lp25
I22
aI27
aI13
aI13
aI57
aI16
aI11
aI13
aI17
aI15
aI12
aI26
aI9
aI13
aI13
aI8
aI14
aI12
aI16
aI16
aI15
aI21
aI16
aI15
aI0
aI29
aI16
aI14
aI16
aI15
aI33
aI11
aI11
aI12
aI4
aa(lp26
I18
aI12
aI22
aI25
aI35
aI22
aI31
aI24
aI27
aI20
aI21
aI37
aI31
aI20
aI29
aI27
aI19
aI26
aI22
aI22
aI25
aI17
aI21
aI22
aI26
aI0
aI22
aI24
aI22
aI23
aI17
aI22
aI24
aI22
aI27
aa(lp27
I10
aI15
aI10
aI3
aI46
aI7
aI13
aI4
aI8
aI11
aI6
aI30
aI12
aI9
aI10
aI9
aI10
aI7
aI5
aI1
aI7
aI11
aI4
aI2
aI13
aI22
aI0
aI6
aI1
aI4
aI24
aI5
aI9
aI11
aI11
aa(lp28
I16
aI16
aI12
aI6
aI44
aI11
aI9
aI7
aI5
aI16
aI10
aI24
aI10
aI12
aI6
aI9
aI14
aI3
aI3
aI6
aI3
aI15
aI2
aI7
aI15
aI20
aI7
aI0
aI7
aI6
aI25
aI10
aI9
aI12
aI11
aa(lp29
I10
aI16
aI10
aI4
aI46
aI9
aI13
aI4
aI7
aI11
aI6
aI30
aI13
aI9
aI10
aI8
aI10
aI7
aI5
aI1
aI7
aI11
aI5
aI1
aI13
aI23
aI1
aI6
aI0
aI5
aI25
aI5
aI9
aI11
aI12
aa(lp30
I13
aI18
aI8
aI2
aI47
aI4
aI11
aI3
aI7
aI12
aI3
aI29
aI11
aI6
aI9
aI8
aI8
aI4
aI7
aI4
aI6
aI13
aI6
aI3
aI11
aI24
aI4
aI5
aI2
aI0
aI27
aI2
aI5
aI7
aI9
aa(lp31
I12
aI11
aI20
aI16
aI38
aI16
aI25
aI16
aI18
aI17
aI18
aI41
aI25
aI17
aI21
aI22
aI17
aI17
aI13
aI15
aI17
aI13
aI13
aI16
aI22
aI12
aI15
aI15
aI16
aI16
aI0
aI20
aI21
aI21
aI25
aa(lp32
I13
aI17
aI7
aI7
aI50
aI5
aI12
aI7
aI8
aI9
aI2
aI29
aI12
aI5
aI10
aI7
aI7
aI7
aI9
aI10
aI8
aI12
aI8
aI10
aI10
aI22
aI10
aI8
aI10
aI9
aI27
aI0
aI4
aI7
aI8
aa(lp33
I15
aI20
aI7
aI5
aI50
aI9
aI10
aI5
aI9
aI10
aI4
aI29
aI10
aI7
aI10
aI7
aI9
aI6
aI9
aI10
aI9
aI15
aI9
aI10
aI9
aI26
aI10
aI9
aI10
aI9
aI28
aI4
aI0
aI8
aI6
aa(lp34
I15
aI21
aI8
aI6
aI48
aI11
aI11
aI7
aI10
aI12
aI5
aI30
aI9
aI9
aI10
aI6
aI12
aI9
aI12
aI11
aI9
aI16
aI10
aI12
aI7
aI27
aI12
aI9
aI11
aI11
aI28
aI4
aI5
aI0
aI6
aa(lp35
I19
aI25
aI9
aI11
aI56
aI15
aI7
aI10
aI15
aI14
aI10
aI24
aI6
aI11
aI11
aI4
aI12
aI8
aI15
aI13
aI13
aI18
aI14
aI13
aI4
aI28
aI13
aI12
aI13
aI13
aI32
aI9
aI8
aI10
aI0
aa.