(lp0
(lp1
I0
aI25
aI13
aI13
aI17
aI17
aI17
aI18
aI21
aI13
aI18
aI31
aI18
aI25
aI20
aI25
aI18
aI18
aI16
aI18
aI21
aI21
aI20
aI33
aI17
aI21
aI20
aI20
aI18
aI17
aI14
aI28
aI11
aI21
aI17
aI14
aI6
aI20
aI20
aI23
aI9
aI13
aI5
aa(lp2
I25
aI0
aI16
aI16
aI15
aI15
aI15
aI10
aI6
aI25
aI11
aI21
aI10
aI6
aI8
aI18
aI11
aI14
aI14
aI14
aI16
aI12
aI11
aI44
aI30
aI13
aI11
aI11
aI10
aI13
aI14
aI8
aI22
aI32
aI12
aI12
aI24
aI7
aI13
aI5
aI21
aI15
aI24
aa(lp3
I14
aI14
aI0
aI7
aI8
aI8
aI8
aI13
aI9
aI21
aI14
aI25
aI13
aI17
aI11
aI22
aI13
aI11
aI5
aI11
aI16
aI13
aI13
aI40
aI27
aI13
aI13
aI13
aI13
aI8
aI4
aI18
aI11
aI29
aI6
aI5
aI15
aI10
aI14
aI8
aI16
aI6
aI15
aa(lp4
I14
aI14
aI7
aI0
aI8
aI8
aI8
aI13
aI9
aI21
aI14
aI25
aI13
aI17
aI11
aI22
aI13
aI11
aI5
aI11
aI16
aI13
aI13
aI40
aI27
aI13
aI13
aI13
aI13
aI8
aI4
aI18
aI11
aI29
aI6
aI5
aI15
aI10
aI14
aI8
aI16
aI6
aI15
aa(lp5
I13
aI13
aI5
aI5
aI0
aI4
aI4
aI6
aI12
aI16
aI6
aI25
aI6
aI12
aI9
aI16
aI6
aI3
aI9
aI3
aI9
aI9
aI6
aI36
aI19
aI8
aI6
aI6
aI6
aI3
aI6
aI19
aI9
aI23
aI2
aI7
aI15
aI8
aI8
aI10
aI10
aI6
aI12
aa(lp6
I13
aI13
aI5
aI5
aI4
aI0
aI4
aI6
aI12
aI16
aI6
aI25
aI6
aI12
aI9
aI16
aI6
aI3
aI9
aI3
aI9
aI9
aI6
aI36
aI19
aI8
aI6
aI6
aI6
aI3
aI6
aI19
aI9
aI23
aI2
aI7
aI15
aI8
aI8
aI10
aI10
aI6
aI12
aa(lp7
I13
aI13
aI5
aI5
aI4
aI4
aI0
aI6
aI12
aI16
aI6
aI25
aI6
aI12
aI9
aI16
aI6
aI3
aI9
aI3
aI9
aI9
aI6
aI36
aI19
aI8
aI6
aI6
aI6
aI3
aI6
aI19
aI9
aI23
aI2
aI7
aI15
aI8
aI8
aI10
aI10
aI6
aI12
aa(lp8
I21
aI9
aI11
aI11
aI9
aI9
aI9
aI0
aI11
aI14
aI1
aI22
aI1
aI7
aI6
aI15
aI4
aI9
aI15
aI9
aI9
aI5
aI6
aI36
aI18
aI8
aI5
aI5
aI1
aI9
aI14
aI16
aI11
aI22
aI9
aI9
aI23
aI5
aI8
aI8
aI14
aI12
aI17
aa(lp9
I24
aI9
aI15
aI15
aI14
aI14
aI14
aI14
aI0
aI26
aI14
aI28
aI13
aI13
aI9
aI22
aI13
aI15
aI10
aI15
aI21
aI11
aI13
aI47
aI31
aI13
aI13
aI13
aI13
aI14
aI10
aI9
aI21
aI34
aI12
aI11
aI24
aI8
aI14
aI6
aI22
aI15
aI23
aa(lp10
I15
aI24
aI18
aI18
aI15
aI15
aI15
aI15
aI25
aI0
aI16
aI27
aI16
aI23
aI20
aI20
aI19
aI16
aI23
aI16
aI18
aI20
aI19
aI29
aI10
aI20
aI18
aI18
aI15
aI16
aI21
aI29
aI13
aI16
aI20
aI20
aI18
aI20
aI18
aI22
aI10
aI18
aI10
aa(lp11
I21
aI11
aI11
aI11
aI8
aI8
aI8
aI1
aI11
aI14
aI0
aI22
aI2
aI9
aI7
aI16
aI4
aI8
aI16
aI8
aI8
aI6
aI6
aI35
aI18
aI7
aI6
aI6
aI1
aI10
aI15
aI18
aI13
aI22
aI10
aI11
aI23
aI6
aI7
aI9
aI14
aI13
aI17
aa(lp12
I35
aI22
aI29
aI29
aI27
aI27
aI27
aI24
aI29
aI31
aI25
aI0
aI24
aI23
aI27
aI22
aI26
aI27
aI32
aI27
aI20
aI27
aI27
aI44
aI38
aI27
aI26
aI26
aI25
aI27
aI28
aI28
aI29
aI38
aI27
aI28
aI37
aI28
aI27
aI29
aI31
aI29
aI33
aa(lp13
I21
aI9
aI11
aI11
aI9
aI9
aI9
aI1
aI11
aI14
aI1
aI22
aI0
aI7
aI6
aI16
aI4
aI8
aI15
aI8
aI9
aI6
aI6
aI35
aI18
aI8
aI6
aI6
aI1
aI9
aI13
aI16
aI11
aI22
aI9
aI10
aI22
aI5
aI7
aI9
aI14
aI12
aI18
aa(lp14
I24
aI5
aI16
aI16
aI13
aI13
aI13
aI6
aI13
aI19
aI6
aI19
aI5
aI0
aI10
aI15
aI9
aI11
aI16
aI11
aI11
aI9
aI9
aI40
aI24
aI10
aI9
aI9
aI5
aI12
aI16
aI15
aI17
aI28
aI11
aI13
aI25
aI8
aI10
aI11
aI18
aI15
aI22
aa(lp15
I21
aI9
aI11
aI11
aI9
aI9
aI9
aI4
aI9
aI18
aI4
aI22
aI4
aI7
aI0
aI18
aI4
aI7
aI12
aI7
aI13
aI5
aI4
aI39
aI23
aI6
aI4
aI4
aI4
aI9
aI11
aI14
aI13
aI26
aI8
aI9
aI21
aI3
aI6
aI8
aI14
aI11
aI19
aa(lp16
I24
aI15
aI19
aI19
aI14
aI14
aI14
aI14
aI18
aI19
aI14
aI21
aI14
aI13
aI17
aI0
aI16
aI20
aI22
aI20
aI9
aI20
aI16
aI39
aI24
aI17
aI16
aI16
aI14
aI15
aI21
aI19
aI19
aI28
aI20
aI21
aI27
aI16
aI17
aI19
aI21
aI20
aI24
aa(lp17
I17
aI12
aI10
aI10
aI7
aI7
aI7
aI4
aI12
aI15
aI5
aI25
aI4
aI10
aI6
aI17
aI0
aI6
aI13
aI6
aI12
aI7
aI3
aI38
aI22
aI3
aI1
aI1
aI4
aI8
aI12
aI17
aI10
aI24
aI5
aI9
aI20
aI6
aI2
aI9
aI12
aI11
aI16
aa(lp18
I16
aI14
aI7
aI7
aI4
aI4
aI4
aI7
aI12
aI17
aI7
aI25
aI6
aI13
aI9
aI19
aI7
aI0
aI10
aI1
aI12
aI9
aI7
aI38
aI22
aI9
aI7
aI7
aI6
aI3
aI8
aI19
aI11
aI25
aI1
aI7
aI17
aI8
aI9
aI11
aI12
aI8
aI14
aa(lp19
I19
aI13
aI11
aI11
aI15
aI15
aI15
aI15
aI8
aI27
aI16
aI31
aI15
aI18
aI12
aI26
aI15
aI16
aI0
aI16
aI20
aI14
aI14
aI42
aI28
aI15
aI15
aI15
aI15
aI15
aI5
aI15
aI20
aI33
aI10
aI11
aI19
aI11
aI15
aI10
aI20
aI11
aI18
aa(lp20
I16
aI14
aI7
aI7
aI4
aI4
aI4
aI7
aI12
aI17
aI7
aI25
aI6
aI13
aI9
aI19
aI7
aI1
aI10
aI0
aI12
aI9
aI7
aI38
aI22
aI9
aI7
aI7
aI6
aI3
aI8
aI19
aI11
aI25
aI1
aI7
aI17
aI8
aI9
aI11
aI12
aI8
aI14
aa(lp21
I22
aI17
aI14
aI14
aI11
aI11
aI11
aI10
aI20
aI12
aI9
aI18
aI10
aI14
aI14
aI9
aI13
aI16
aI18
aI16
aI0
aI14
aI14
aI37
aI21
aI15
aI13
aI13
aI10
aI13
aI16
aI21
aI14
aI25
aI15
aI15
aI22
aI14
aI15
aI17
aI15
aI14
aI18
aa(lp22
I23
aI8
aI15
aI15
aI12
aI12
aI12
aI5
aI9
aI18
aI6
aI22
aI5
aI8
aI4
aI18
aI8
aI10
aI15
aI10
aI14
aI0
aI7
aI40
aI23
aI9
aI8
aI8
aI5
aI12
aI13
aI13
aI17
aI28
aI9
aI9
aI25
aI3
aI9
aI6
aI18
aI15
aI22
aa(lp23
I16
aI11
aI8
aI8
aI5
aI5
aI5
aI6
aI10
aI18
aI7
aI24
aI6
aI10
aI5
aI19
aI3
aI3
aI11
aI3
aI12
aI6
aI0
aI39
aI24
aI2
aI2
aI2
aI6
aI5
aI8
aI16
aI11
aI27
aI2
aI5
aI18
aI4
aI3
aI8
aI13
aI6
aI15
aa(lp24
I35
aI44
aI38
aI38
aI37
aI37
aI37
aI36
aI46
aI37
aI36
aI43
aI36
aI42
aI39
aI42
aI38
aI39
aI44
aI39
aI38
aI40
aI40
aI0
aI37
aI40
aI40
aI40
aI36
aI39
aI42
aI47
aI35
aI33
aI41
aI41
aI36
aI42
aI38
aI42
aI38
aI38
aI37
aa(lp25
I16
aI31
aI22
aI22
aI19
aI19
aI19
aI21
aI31
aI12
aI22
aI34
aI21
aI28
aI27
aI29
aI22
aI22
aI27
aI22
aI23
aI25
aI23
aI34
aI0
aI23
aI22
aI22
aI21
aI22
aI25
aI37
aI20
aI17
aI22
aI24
aI16
aI27
aI23
aI27
aI16
aI22
aI12
aa(lp26
I18
aI11
aI10
aI10
aI7
aI7
aI7
aI4
aI12
aI16
aI5
aI24
aI5
aI12
aI5
aI18
aI3
aI5
aI12
aI5
aI12
aI7
aI3
aI39
aI23
aI0
aI2
aI2
aI5
aI7
aI10
aI17
aI11
aI25
aI5
aI8
aI20
aI5
aI1
aI8
aI12
aI10
aI17
aa(lp27
I17
aI12
aI10
aI10
aI7
aI7
aI7
aI5
aI12
aI16
aI5
aI25
aI5
aI10
aI5
aI18
aI1
aI5
aI13
aI5
aI11
aI7
aI4
aI38
aI23
aI3
aI0
aI1
aI5
aI8
aI12
aI17
aI10
aI25
aI5
aI9
aI19
aI6
aI3
aI9
aI12
aI11
aI16
aa(lp28
I17
aI12
aI10
aI10
aI7
aI7
aI7
aI5
aI12
aI16
aI5
aI25
aI5
aI10
aI5
aI18
aI1
aI5
aI13
aI5
aI11
aI7
aI4
aI38
aI23
aI3
aI1
aI0
aI5
aI8
aI12
aI17
aI10
aI25
aI5
aI9
aI19
aI6
aI3
aI9
aI12
aI11
aI16
aa(lp29
I21
aI9
aI10
aI10
aI8
aI8
aI8
aI1
aI11
aI14
aI1
aI22
aI1
aI7
aI6
aI16
aI3
aI8
aI15
aI8
aI9
aI6
aI6
aI35
aI18
aI8
aI5
aI5
aI0
aI9
aI13
aI16
aI12
aI22
aI9
aI10
aI22
aI5
aI7
aI8
aI14
aI13
aI18
aa(lp30
I14
aI15
aI5
aI5
aI4
aI4
aI4
aI7
aI11
aI16
aI7
aI24
aI6
aI12
aI10
aI19
aI7
aI2
aI10
aI2
aI9
aI9
aI8
aI36
aI21
aI8
aI7
aI7
aI6
aI0
aI7
aI18
aI9
aI25
aI1
aI7
aI15
aI8
aI9
aI11
aI10
aI5
aI13
aa(lp31
I16
aI15
aI8
aI8
aI9
aI9
aI9
aI15
aI11
aI23
aI15
aI31
aI15
aI17
aI13
aI26
aI14
aI12
aI5
aI12
aI17
aI14
aI15
aI41
aI25
aI15
aI14
aI14
aI15
aI9
aI0
aI17
aI17
aI30
aI7
aI7
aI17
aI11
aI15
aI9
aI18
aI8
aI15
aa(lp32
I33
aI13
aI24
aI24
aI23
aI23
aI23
aI21
aI15
aI36
aI22
aI26
aI21
aI18
aI17
aI25
aI21
aI24
aI21
aI24
aI27
aI19
aI20
aI55
aI41
aI21
aI21
aI21
aI21
aI23
aI21
aI0
aI29
aI42
aI20
aI21
aI34
aI15
aI22
aI14
aI32
aI22
aI32
aa(lp33
I11
aI21
aI9
aI9
aI9
aI9
aI9
aI16
aI19
aI15
aI14
aI30
aI14
aI21
aI16
aI22
aI13
aI14
aI14
aI14
aI17
aI16
aI14
aI36
aI21
aI15
aI13
aI13
aI13
aI9
aI12
aI24
aI0
aI23
aI13
aI11
aI13
aI17
aI13
aI18
aI8
aI10
aI9
aa(lp34
I12
aI22
aI20
aI20
aI15
aI15
aI15
aI13
aI25
aI11
aI13
aI28
aI13
aI20
aI17
aI24
aI15
aI15
aI23
aI15
aI15
aI17
aI16
aI30
aI12
aI17
aI16
aI16
aI13
aI14
aI22
aI27
aI14
aI0
aI20
aI21
aI16
aI17
aI16
aI20
aI12
aI21
aI10
aa(lp35
I15
aI12
aI7
aI7
aI5
aI5
aI5
aI8
aI11
aI17
aI9
aI25
aI8
aI11
aI7
aI19
aI10
aI4
aI10
aI4
aI11
aI8
aI8
aI39
aI22
aI10
aI10
aI10
aI8
aI4
aI7
aI17
aI12
aI27
aI0
aI4
aI17
aI6
aI11
aI9
aI14
aI7
aI15
aa(lp36
I15
aI12
aI7
aI7
aI8
aI8
aI8
aI9
aI10
aI20
aI9
aI25
aI9
aI11
aI7
aI21
aI10
aI8
aI9
aI8
aI13
aI8
aI9
aI39
aI26
aI10
aI10
aI10
aI9
aI6
aI6
aI16
aI13
aI28
aI4
aI0
aI17
aI6
aI10
aI6
aI16
aI8
aI15
aa(lp37
I4
aI25
aI13
aI13
aI18
aI18
aI18
aI22
aI24
aI16
aI22
aI32
aI21
aI25
aI22
aI29
aI22
aI20
aI16
aI20
aI24
aI23
aI23
aI32
aI19
aI23
aI22
aI22
aI22
aI19
aI16
aI27
aI16
aI21
aI20
aI16
aI0
aI23
aI23
aI23
aI12
aI15
aI6
aa(lp38
I20
aI7
aI13
aI13
aI11
aI11
aI11
aI6
aI6
aI19
aI7
aI25
aI6
aI7
aI2
aI18
aI6
aI8
aI11
aI8
aI14
aI5
aI5
aI42
aI24
aI7
aI6
aI6
aI6
aI10
aI11
aI12
aI16
aI27
aI8
aI8
aI21
aI0
aI7
aI5
aI17
aI13
aI21
aa(lp39
I18
aI12
aI10
aI10
aI7
aI7
aI7
aI5
aI12
aI16
aI6
aI25
aI5
aI11
aI5
aI18
aI2
aI5
aI12
aI5
aI12
aI7
aI4
aI38
aI23
aI2
aI2
aI2
aI5
aI7
aI10
aI18
aI11
aI25
aI5
aI8
aI20
aI5
aI0
aI9
aI13
aI10
aI17
aa(lp40
I21
aI7
aI14
aI14
aI10
aI10
aI10
aI8
aI6
aI21
aI9
aI28
aI8
aI9
aI5
aI20
aI9
aI10
aI10
aI10
aI17
aI8
aI7
aI43
aI28
aI10
aI9
aI9
aI8
aI11
aI9
aI10
aI16
aI31
aI7
aI8
aI21
aI4
aI10
aI0
aI19
aI12
aI21
aa(lp41
I9
aI19
aI9
aI9
aI9
aI9
aI9
aI11
aI19
aI8
aI12
aI26
aI11
aI18
aI15
aI20
aI13
aI10
aI15
aI10
aI14
aI14
aI13
aI34
aI13
aI13
aI13
aI13
aI11
aI10
aI14
aI25
aI8
aI17
aI13
aI12
aI11
aI14
aI12
aI18
aI0
aI10
aI6
aa(lp42
I16
aI12
aI8
aI8
aI9
aI9
aI9
aI9
aI10
aI21
aI12
aI26
aI10
aI14
aI8
aI21
aI11
aI10
aI7
aI10
aI15
aI10
aI11
aI38
aI27
aI12
aI11
aI11
aI10
aI7
aI6
aI18
aI13
aI28
aI4
aI5
aI16
aI9
aI12
aI7
aI17
aI0
aI16
aa(lp43
I6
aI23
aI12
aI12
aI12
aI12
aI12
aI15
aI21
aI11
aI15
aI27
aI15
aI22
aI18
aI22
aI18
aI14
aI16
aI14
aI17
aI16
aI18
aI30
aI13
aI17
aI16
aI16
aI15
aI14
aI15
aI26
aI11
aI18
aI15
aI12
aI7
aI19
aI18
aI22
aI8
aI12
aI0
aa.