(lp0
(lp1
I0
aI49
aI52
aI52
aI50
aI44
aI56
aI47
aI58
aI52
aI52
aI52
aI56
aI51
aI47
aI58
aI41
aI44
aI56
aI50
aI56
aI55
aI49
aI47
aI47
aI46
aI46
aI39
aI56
aI57
aI56
aI41
aI56
aI40
aI59
aI54
aI51
aI56
aI49
aI52
aI51
aI50
aI41
aa(lp2
I47
aI0
aI9
aI6
aI7
aI12
aI19
aI13
aI20
aI9
aI9
aI12
aI19
aI7
aI6
aI14
aI9
aI22
aI14
aI7
aI17
aI25
aI9
aI6
aI3
aI12
aI5
aI23
aI15
aI13
aI24
aI9
aI24
aI27
aI15
aI11
aI6
aI14
aI3
aI27
aI9
aI5
aI11
aa(lp3
I48
aI5
aI0
aI9
aI8
aI9
aI15
aI6
aI20
aI7
aI7
aI7
aI16
aI9
aI8
aI14
aI10
aI25
aI15
aI8
aI17
aI22
aI11
aI8
aI7
aI9
aI9
aI24
aI13
aI12
aI26
aI11
aI26
aI29
aI13
aI5
aI9
aI15
aI7
aI28
aI3
aI7
aI12
aa(lp4
I49
aI4
aI8
aI0
aI3
aI12
aI17
aI11
aI14
aI10
aI10
aI10
aI19
aI4
aI6
aI10
aI12
aI23
aI10
aI3
aI11
aI21
aI10
aI6
aI5
aI13
aI7
aI25
aI13
aI11
aI21
aI12
aI21
aI29
aI11
aI8
aI4
aI10
aI4
aI23
aI6
aI4
aI14
aa(lp5
I48
aI5
aI10
aI4
aI0
aI14
aI21
aI13
aI14
aI10
aI10
aI13
aI21
aI1
aI6
aI8
aI11
aI22
aI12
aI1
aI14
aI22
aI7
aI6
aI6
aI15
aI5
aI25
aI16
aI9
aI18
aI11
aI18
aI26
aI12
aI9
aI6
aI13
aI3
aI22
aI9
aI3
aI13
aa(lp6
I42
aI10
aI9
aI13
aI14
aI0
aI18
aI3
aI25
aI9
aI9
aI10
aI18
aI15
aI13
aI21
aI7
aI30
aI18
aI14
aI20
aI24
aI16
aI13
aI10
aI4
aI11
aI18
aI14
aI19
aI28
aI6
aI28
aI23
aI18
aI11
aI13
aI19
aI11
aI33
aI9
aI14
aI7
aa(lp7
I57
aI19
aI15
aI17
aI18
aI17
aI0
aI14
aI13
aI13
aI13
aI13
aI6
aI18
aI21
aI18
aI21
aI31
aI10
aI18
aI8
aI9
aI25
aI21
aI20
aI16
aI22
aI35
aI7
aI21
aI17
aI21
aI17
aI40
aI11
aI17
aI20
aI11
aI20
aI21
aI17
aI20
aI24
aa(lp8
I46
aI11
aI7
aI12
aI15
aI4
aI16
aI0
aI23
aI8
aI8
aI8
aI16
aI15
aI14
aI20
aI11
aI31
aI16
aI15
aI19
aI23
aI17
aI14
aI13
aI5
aI14
aI24
aI11
aI17
aI25
aI10
aI25
aI29
aI17
aI9
aI15
aI17
aI12
aI30
aI7
aI14
aI11
aa(lp9
I56
aI19
aI20
aI17
aI15
aI23
aI16
aI21
aI0
aI18
aI18
aI18
aI18
aI16
aI20
aI10
aI25
aI26
aI10
aI16
aI8
aI15
aI23
aI20
aI20
aI20
aI20
aI38
aI15
aI16
aI10
aI25
aI10
aI38
aI12
aI15
aI19
aI8
aI20
aI17
aI20
aI18
aI26
aa(lp10
I48
aI9
aI6
aI11
aI13
aI5
aI14
aI4
aI21
aI0
aI7
aI6
aI14
aI14
aI13
aI18
aI9
aI25
aI15
aI13
aI17
aI21
aI17
aI13
aI11
aI5
aI13
aI23
aI13
aI16
aI27
aI9
aI27
aI29
aI11
aI8
aI13
aI14
aI10
aI29
aI6
aI12
aI11
aa(lp11
I48
aI9
aI6
aI11
aI13
aI5
aI14
aI4
aI21
aI7
aI0
aI6
aI14
aI14
aI13
aI18
aI9
aI25
aI15
aI13
aI17
aI21
aI17
aI13
aI11
aI5
aI13
aI23
aI13
aI16
aI27
aI9
aI27
aI29
aI11
aI8
aI13
aI14
aI10
aI29
aI6
aI12
aI11
aa(lp12
I48
aI6
aI5
aI12
aI10
aI7
aI16
aI6
aI21
aI8
aI8
aI0
aI15
aI12
aI10
aI17
aI10
aI26
aI16
aI10
aI18
aI21
aI14
aI10
aI8
aI7
aI10
aI25
aI13
aI15
aI27
aI10
aI27
aI29
aI13
aI7
aI11
aI15
aI7
aI28
aI4
aI10
aI11
aa(lp13
I52
aI19
aI13
aI20
aI20
aI16
aI5
aI14
aI14
aI13
aI13
aI13
aI0
aI22
aI21
aI21
aI23
aI30
aI9
aI21
aI8
aI11
aI25
aI21
aI21
aI16
aI22
aI35
aI7
aI23
aI16
aI23
aI16
aI39
aI13
aI17
aI21
aI12
aI20
aI21
aI17
aI22
aI23
aa(lp14
I49
aI5
aI11
aI3
aI1
aI14
aI21
aI15
aI14
aI11
aI11
aI13
aI20
aI0
aI6
aI8
aI11
aI22
aI12
aI2
aI14
aI22
aI9
aI6
aI7
aI16
aI7
aI26
aI17
aI8
aI18
aI11
aI18
aI28
aI13
aI10
aI7
aI12
aI4
aI22
aI10
aI5
aI13
aa(lp15
I46
aI7
aI9
aI8
aI5
aI11
aI23
aI13
aI18
aI15
aI15
aI15
aI23
aI6
aI0
aI14
aI9
aI22
aI16
aI5
aI19
aI25
aI8
aI1
aI4
aI15
aI4
aI22
aI17
aI14
aI23
aI9
aI23
aI25
aI17
aI12
aI7
aI16
aI1
aI28
aI9
aI3
aI11
aa(lp16
I52
aI9
aI14
aI8
aI7
aI13
aI17
aI11
aI9
aI10
aI10
aI12
aI19
aI7
aI10
aI0
aI17
aI21
aI10
aI6
aI9
aI15
aI13
aI10
aI12
aI13
aI11
aI30
aI14
aI9
aI13
aI17
aI13
aI33
aI9
aI9
aI10
aI8
aI9
aI20
aI13
aI11
aI18
aa(lp17
I39
aI11
aI11
aI13
aI13
aI6
aI24
aI10
aI26
aI15
aI15
aI15
aI23
aI14
aI11
aI21
aI0
aI28
aI22
aI13
aI23
aI29
aI13
aI11
aI9
aI10
aI10
aI16
aI18
aI21
aI31
aI2
aI31
aI21
aI21
aI14
aI12
aI21
aI10
aI34
aI12
aI12
aI4
aa(lp18
I46
aI24
aI28
aI26
aI25
aI33
aI35
aI28
aI31
aI29
aI29
aI29
aI34
aI25
aI27
aI23
aI29
aI0
aI30
aI24
aI32
aI38
aI23
aI27
aI27
aI32
aI25
aI26
aI31
aI20
aI38
aI29
aI38
aI21
aI29
aI27
aI27
aI30
aI27
aI38
aI27
aI26
aI28
aa(lp19
I55
aI15
aI15
aI11
aI13
aI17
aI10
aI16
aI8
aI10
aI10
aI10
aI13
aI12
aI16
aI10
aI20
aI26
aI0
aI12
aI4
aI12
aI19
aI16
aI16
aI16
aI16
aI35
aI11
aI14
aI14
aI20
aI14
aI38
aI10
aI10
aI14
aI4
aI12
aI17
aI15
aI13
aI21
aa(lp20
I48
aI5
aI10
aI4
aI1
aI14
aI21
aI13
aI14
aI11
aI11
aI12
aI21
aI1
aI6
aI8
aI11
aI22
aI12
aI0
aI14
aI21
aI7
aI6
aI6
aI15
aI5
aI25
aI16
aI9
aI18
aI11
aI18
aI26
aI11
aI9
aI6
aI13
aI3
aI22
aI9
aI3
aI13
aa(lp21
I56
aI16
aI16
aI13
aI14
aI18
aI9
aI16
aI8
aI13
aI13
aI13
aI12
aI14
aI16
aI12
aI21
aI27
aI5
aI13
aI0
aI13
aI21
aI16
aI17
aI17
aI18
aI35
aI11
aI15
aI11
aI21
aI11
aI41
aI8
aI11
aI15
aI4
aI15
aI18
aI15
aI16
aI24
aa(lp22
I58
aI20
aI19
aI18
aI19
aI24
aI10
aI20
aI12
aI18
aI18
aI17
aI13
aI19
aI21
aI20
aI26
aI31
aI11
aI19
aI9
aI0
aI26
aI21
aI23
aI23
aI23
aI39
aI12
aI22
aI17
aI26
aI17
aI43
aI13
aI15
aI19
aI11
aI20
aI22
aI18
aI21
aI29
aa(lp23
I47
aI8
aI13
aI9
aI5
aI15
aI24
aI16
aI19
aI16
aI16
aI15
aI24
aI6
aI9
aI13
aI13
aI19
aI17
aI5
aI20
aI26
aI0
aI9
aI10
aI16
aI5
aI24
aI17
aI11
aI24
aI12
aI24
aI26
aI17
aI12
aI9
aI17
aI9
aI28
aI11
aI7
aI14
aa(lp24
I46
aI7
aI9
aI8
aI5
aI11
aI23
aI13
aI18
aI15
aI15
aI15
aI23
aI6
aI1
aI14
aI9
aI22
aI16
aI5
aI19
aI25
aI8
aI0
aI4
aI15
aI4
aI22
aI17
aI14
aI23
aI9
aI23
aI25
aI17
aI12
aI7
aI16
aI1
aI28
aI9
aI3
aI11
aa(lp25
I46
aI2
aI8
aI4
aI4
aI11
aI21
aI11
aI18
aI11
aI11
aI11
aI21
aI4
aI5
aI13
aI9
aI22
aI13
aI4
aI18
aI24
aI7
aI5
aI0
aI12
aI5
aI22
aI14
aI13
aI23
aI10
aI23
aI28
aI13
aI9
aI4
aI13
aI1
aI26
aI8
aI3
aI11
aa(lp26
I43
aI13
aI11
aI14
aI15
aI2
aI19
aI5
aI27
aI11
aI11
aI11
aI19
aI16
aI14
aI24
aI8
aI31
aI20
aI15
aI22
aI24
aI18
aI14
aI12
aI0
aI12
aI19
aI13
aI20
aI28
aI8
aI28
aI25
aI20
aI15
aI14
aI20
aI13
aI33
aI10
aI16
aI8
aa(lp27
I43
aI8
aI8
aI9
aI7
aI9
aI21
aI11
aI20
aI14
aI14
aI13
aI21
aI8
aI7
aI15
aI7
aI26
aI17
aI7
aI18
aI27
aI4
aI7
aI4
aI12
aI0
aI19
aI15
aI15
aI27
aI7
aI27
aI23
aI16
aI10
aI7
aI17
aI6
aI29
aI8
aI8
aI8
aa(lp28
I37
aI23
aI24
aI25
aI24
aI18
aI34
aI21
aI37
aI25
aI25
aI25
aI35
aI25
aI24
aI34
aI14
aI26
aI35
aI24
aI34
aI41
aI22
aI24
aI21
aI20
aI20
aI0
aI31
aI31
aI43
aI15
aI43
aI12
aI33
aI26
aI24
aI35
aI22
aI47
aI25
aI24
aI12
aa(lp29
I54
aI17
aI13
aI17
aI18
aI8
aI15
aI8
aI16
aI11
aI11
aI12
aI15
aI18
aI19
aI18
aI15
aI31
aI13
aI18
aI14
aI17
aI21
aI19
aI18
aI8
aI19
aI29
aI0
aI21
aI19
aI15
aI19
aI35
aI12
aI16
aI19
aI13
aI18
aI22
aI15
aI18
aI18
aa(lp30
I56
aI13
aI15
aI11
aI10
aI17
aI22
aI16
aI12
aI14
aI14
aI14
aI21
aI9
aI14
aI7
aI20
aI18
aI14
aI10
aI15
aI24
aI14
aI14
aI14
aI18
aI15
aI31
aI17
aI0
aI21
aI21
aI21
aI32
aI14
aI13
aI14
aI13
aI13
aI25
aI15
aI13
aI19
aa(lp31
I58
aI25
aI24
aI21
aI21
aI26
aI16
aI25
aI12
aI22
aI22
aI22
aI16
aI22
aI25
aI20
aI31
aI34
aI17
aI21
aI13
aI13
aI28
aI25
aI27
aI27
aI26
aI43
aI19
aI23
aI0
aI31
aI7
aI40
aI20
aI22
aI23
aI18
aI26
aI17
aI22
aI24
aI33
aa(lp32
I39
aI11
aI11
aI13
aI13
aI6
aI23
aI10
aI26
aI16
aI16
aI15
aI23
aI14
aI11
aI21
aI1
aI28
aI22
aI13
aI23
aI29
aI13
aI11
aI9
aI9
aI10
aI16
aI18
aI21
aI31
aI0
aI31
aI21
aI21
aI15
aI13
aI21
aI10
aI34
aI12
aI12
aI5
aa(lp33
I58
aI25
aI24
aI21
aI21
aI26
aI16
aI25
aI12
aI22
aI22
aI22
aI16
aI22
aI25
aI20
aI31
aI34
aI17
aI21
aI13
aI13
aI28
aI25
aI27
aI27
aI26
aI43
aI19
aI23
aI7
aI31
aI0
aI40
aI20
aI22
aI23
aI18
aI26
aI17
aI22
aI24
aI33
aa(lp34
I37
aI25
aI28
aI28
aI25
aI23
aI39
aI28
aI39
aI29
aI29
aI29
aI40
aI28
aI26
aI34
aI20
aI21
aI37
aI25
aI38
aI43
aI22
aI26
aI24
aI24
aI22
aI7
aI32
aI31
aI44
aI19
aI44
aI0
aI34
aI29
aI27
aI36
aI26
aI47
aI28
aI26
aI20
aa(lp35
I54
aI13
aI11
aI12
aI13
aI15
aI11
aI12
aI15
aI9
aI9
aI10
aI13
aI14
aI16
aI12
aI19
aI30
aI7
aI14
aI9
aI15
aI21
aI16
aI16
aI14
aI16
aI32
aI9
aI17
aI21
aI19
aI21
aI36
aI0
aI9
aI15
aI7
aI16
aI23
aI13
aI14
aI21
aa(lp36
I49
aI7
aI7
aI4
aI6
aI9
aI14
aI7
aI16
aI5
aI5
aI5
aI15
aI7
aI9
aI11
aI11
aI24
aI10
aI6
aI12
aI20
aI12
aI9
aI10
aI10
aI11
aI26
aI11
aI9
aI21
aI11
aI21
aI31
aI9
aI0
aI8
aI10
aI7
aI25
aI1
aI7
aI13
aa(lp37
I48
aI2
aI5
aI4
aI6
aI9
aI16
aI8
aI18
aI8
aI8
aI7
aI17
aI7
aI6
aI13
aI10
aI24
aI13
aI6
aI14
aI24
aI10
aI6
aI4
aI11
aI7
aI25
aI13
aI12
aI24
aI11
aI24
aI28
aI11
aI5
aI0
aI13
aI4
aI27
aI2
aI5
aI12
aa(lp38
I55
aI15
aI15
aI11
aI12
aI17
aI11
aI16
aI10
aI12
aI12
aI11
aI14
aI11
aI15
aI11
aI20
aI24
aI3
aI11
aI3
aI13
aI18
aI15
aI16
aI17
aI16
aI34
aI11
aI14
aI16
aI21
aI16
aI38
aI8
aI11
aI14
aI0
aI12
aI18
aI15
aI12
aI23
aa(lp39
I46
aI6
aI8
aI6
aI8
aI10
aI22
aI11
aI19
aI11
aI11
aI12
aI22
aI8
aI4
aI15
aI9
aI24
aI14
aI7
aI18
aI26
aI7
aI4
aI3
aI12
aI3
aI21
aI15
aI14
aI24
aI9
aI24
aI27
aI15
aI11
aI6
aI16
aI0
aI29
aI8
aI4
aI11
aa(lp40
I51
aI16
aI20
aI14
aI13
aI23
aI12
aI22
aI11
aI20
aI20
aI21
aI16
aI13
aI17
aI14
aI25
aI28
aI13
aI13
aI11
aI12
aI20
aI17
aI17
aI23
aI19
aI40
aI15
aI15
aI12
aI25
aI12
aI42
aI14
aI14
aI16
aI12
aI16
aI0
aI20
aI17
aI25
aa(lp41
I48
aI7
aI4
aI9
aI8
aI9
aI15
aI7
aI17
aI7
aI7
aI7
aI17
aI9
aI8
aI14
aI11
aI25
aI12
aI8
aI14
aI21
aI11
aI8
aI7
aI10
aI9
aI24
aI13
aI11
aI22
aI11
aI22
aI29
aI12
aI4
aI9
aI13
aI6
aI27
aI0
aI8
aI12
aa(lp42
I47
aI4
aI10
aI4
aI3
aI14
aI20
aI13
aI17
aI11
aI11
aI12
aI21
aI3
aI7
aI11
aI10
aI22
aI13
aI3
aI18
aI25
aI6
aI7
aI6
aI14
aI6
aI24
aI15
aI10
aI21
aI10
aI21
aI25
aI14
aI9
aI7
aI14
aI5
aI24
aI9
aI0
aI12
aa(lp43
I39
aI13
aI15
aI16
aI13
aI9
aI27
aI12
aI27
aI18
aI18
aI17
aI27
aI16
aI14
aI21
aI8
aI26
aI23
aI13
aI26
aI32
aI10
aI14
aI11
aI11
aI10
aI14
aI23
aI18
aI32
aI6
aI32
aI20
aI22
aI17
aI15
aI23
aI13
aI36
aI15
aI14
aI0
aa.