(lp0
(lp1
I0
aI10
aI12
aI11
aI1
aI19
aI12
aI16
aI38
aI67
aI14
aI13
aI21
aI14
aI16
aI16
aI13
aI10
aI11
aI26
aI10
aI12
aI37
aI41
aI12
aI14
aI109
aI20
aI10
aI145
aI18
aI16
aI19
aI14
aI11
aI18
aI15
aI12
aI16
aI8
aI33
aI14
aI11
aI16
aI3
aI18
aI14
aI13
aI33
aI15
aI13
aI15
aI19
aI18
aI15
aI16
aI3
aa(lp2
I8
aI0
aI18
aI12
aI8
aI23
aI18
aI21
aI36
aI68
aI19
aI19
aI25
aI20
aI21
aI21
aI19
aI14
aI14
aI27
aI14
aI18
aI36
aI44
aI16
aI18
aI104
aI25
aI15
aI144
aI23
aI21
aI22
aI20
aI12
aI23
aI19
aI15
aI20
aI13
aI37
aI19
aI16
aI20
aI7
aI23
aI19
aI19
aI37
aI19
aI18
aI20
aI23
aI17
aI20
aI20
aI7
aa(lp3
I14
aI21
aI0
aI13
aI14
aI14
aI12
aI4
aI48
aI56
aI12
aI12
aI10
aI9
aI5
aI13
aI12
aI15
aI13
aI23
aI11
aI6
aI30
aI33
aI12
aI14
aI112
aI9
aI8
aI133
aI13
aI4
aI17
aI7
aI22
aI5
aI4
aI14
aI13
aI9
aI20
aI13
aI14
aI13
aI17
aI5
aI13
aI9
aI21
aI11
aI13
aI11
aI14
aI29
aI6
aI13
aI17
aa(lp4
I8
aI16
aI7
aI0
aI8
aI19
aI13
aI11
aI44
aI63
aI13
aI13
aI19
aI13
aI11
aI17
aI12
aI12
aI12
aI21
aI6
aI10
aI34
aI40
aI15
aI14
aI113
aI16
aI5
aI139
aI18
aI10
aI18
aI11
aI16
aI15
aI10
aI14
aI14
aI3
aI28
aI14
aI14
aI14
aI10
aI15
aI12
aI12
aI28
aI13
aI12
aI13
aI19
aI20
aI12
aI16
aI10
aa(lp5
I1
aI10
aI12
aI11
aI0
aI19
aI12
aI16
aI38
aI67
aI14
aI13
aI21
aI14
aI16
aI16
aI13
aI10
aI11
aI26
aI10
aI12
aI37
aI41
aI12
aI14
aI109
aI20
aI10
aI145
aI18
aI16
aI19
aI14
aI11
aI18
aI15
aI12
aI16
aI8
aI33
aI14
aI11
aI16
aI3
aI18
aI14
aI13
aI33
aI15
aI13
aI15
aI19
aI18
aI15
aI16
aI3
aa(lp6
I20
aI22
aI14
aI15
aI20
aI0
aI9
aI13
aI49
aI50
aI10
aI14
aI8
aI10
aI8
aI8
aI14
aI10
aI10
aI17
aI18
aI12
aI19
aI31
aI8
aI9
aI107
aI8
aI14
aI127
aI3
aI9
aI11
aI8
aI23
aI10
aI14
aI10
aI3
aI15
aI17
aI11
aI9
aI3
aI22
aI10
aI8
aI10
aI17
aI10
aI10
aI6
aI3
aI30
aI9
aI9
aI22
aa(lp7
I14
aI17
aI11
aI13
aI14
aI6
aI0
aI13
aI45
aI57
aI5
aI9
aI11
aI4
aI10
aI4
aI9
aI4
aI4
aI16
aI15
aI9
aI25
aI36
aI3
aI3
aI104
aI10
aI11
aI135
aI6
aI10
aI7
aI8
aI18
aI12
aI14
aI4
aI6
aI14
aI24
aI4
aI3
aI6
aI16
aI13
aI6
aI4
aI24
aI5
aI5
aI6
aI6
aI24
aI9
aI8
aI16
aa(lp8
I17
aI23
aI8
aI15
aI17
aI16
aI14
aI0
aI55
aI57
aI13
aI13
aI12
aI11
aI6
aI15
aI13
aI15
aI15
aI27
aI12
aI7
aI29
aI33
aI14
aI16
aI116
aI9
aI9
aI133
aI15
aI5
aI19
aI9
aI24
aI7
aI4
aI15
aI14
aI9
aI22
aI14
aI15
aI14
aI18
aI4
aI15
aI12
aI22
aI11
aI14
aI13
aI16
aI30
aI7
aI14
aI18
aa(lp9
I42
aI36
aI45
aI44
aI42
aI49
aI47
aI48
aI0
aI67
aI47
aI46
aI53
aI47
aI50
aI47
aI46
aI42
aI42
aI41
aI45
aI47
aI49
aI49
aI45
aI44
aI104
aI53
aI45
aI145
aI49
aI49
aI48
aI49
aI36
aI51
aI49
aI42
aI49
aI45
aI51
aI45
aI44
aI49
aI39
aI51
aI47
aI45
aI51
aI47
aI46
aI48
aI49
aI38
aI49
aI46
aI39
aa(lp10
I68
aI69
aI59
aI67
aI68
aI54
aI58
aI56
aI72
aI0
aI61
aI61
aI49
aI58
aI53
aI58
aI64
aI61
aI61
aI50
aI66
aI60
aI43
aI37
aI57
aI60
aI117
aI49
aI64
aI23
aI54
aI57
aI60
aI58
aI74
aI52
aI59
aI60
aI53
aI64
aI45
aI59
aI59
aI53
aI69
aI52
aI61
aI58
aI45
aI58
aI59
aI56
aI54
aI79
aI60
aI57
aI69
aa(lp11
I13
aI18
aI7
aI11
aI13
aI14
aI7
aI8
aI48
aI58
aI0
aI4
aI13
aI3
aI7
aI9
aI5
aI10
aI8
aI20
aI9
aI3
aI29
aI37
aI8
aI9
aI110
aI11
aI6
aI135
aI11
aI6
aI12
aI3
aI19
aI8
aI10
aI10
aI10
aI7
aI24
aI7
aI9
aI10
aI14
aI8
aI7
aI6
aI24
aI7
aI8
aI8
aI14
aI27
aI3
aI9
aI13
aa(lp12
I13
aI18
aI7
aI11
aI13
aI11
aI6
aI8
aI47
aI58
aI2
aI0
aI13
aI2
aI8
aI7
aI5
aI9
aI8
aI20
aI10
aI3
aI29
aI37
aI6
aI8
aI108
aI12
aI7
aI136
aI8
aI7
aI11
aI5
aI19
aI9
aI10
aI8
aI7
aI8
aI24
aI7
aI8
aI7
aI14
aI10
aI6
aI6
aI24
aI3
aI7
aI4
aI11
aI27
aI2
aI7
aI14
aa(lp13
I20
aI25
aI16
aI18
aI20
aI6
aI10
aI10
aI53
aI50
aI12
aI14
aI0
aI8
aI6
aI11
aI15
aI13
aI12
aI20
aI18
aI13
aI21
aI31
aI10
aI12
aI108
aI5
aI15
aI127
aI6
aI8
aI14
aI6
aI27
aI7
aI11
aI13
aI6
aI15
aI16
aI11
aI12
aI6
aI21
aI8
aI9
aI9
aI16
aI8
aI11
aI7
aI6
aI33
aI8
aI10
aI21
aa(lp14
I16
aI19
aI9
aI13
aI16
aI9
aI4
aI11
aI48
aI56
aI5
aI9
aI10
aI0
aI6
aI7
aI10
aI7
aI7
aI19
aI14
aI9
aI29
aI35
aI5
aI6
aI107
aI10
aI9
aI134
aI8
aI7
aI10
aI5
aI21
aI9
aI12
aI7
aI5
aI13
aI22
aI7
aI6
aI5
aI18
aI9
aI5
aI2
aI22
aI2
aI5
aI3
aI9
aI28
aI7
aI6
aI18
aa(lp15
I17
aI22
aI9
aI18
aI17
aI9
aI11
aI8
aI53
aI54
aI11
aI13
aI7
aI7
aI0
aI13
aI12
aI14
aI13
aI23
aI13
aI7
aI25
aI34
aI11
aI13
aI110
aI8
aI10
aI131
aI10
aI2
aI15
aI6
aI22
aI5
aI8
aI14
aI9
aI12
aI19
aI12
aI13
aI9
aI18
aI6
aI10
aI8
aI19
aI6
aI12
aI8
aI9
aI30
aI6
aI10
aI18
aa(lp16
I18
aI19
aI17
aI15
aI18
aI5
aI7
aI16
aI44
aI60
aI10
aI10
aI13
aI9
aI11
aI0
aI12
aI7
aI7
aI15
aI17
aI12
aI26
aI38
aI6
aI5
aI103
aI13
aI14
aI134
aI5
aI13
aI7
aI12
aI20
aI14
aI17
aI7
aI6
aI16
aI26
aI9
aI7
aI6
aI19
aI16
aI9
aI8
aI26
aI8
aI9
aI8
aI5
aI28
aI11
aI8
aI19
aa(lp17
I13
aI18
aI8
aI13
aI13
aI11
aI6
aI8
aI49
aI58
aI1
aI2
aI13
aI3
aI7
aI8
aI0
aI9
aI8
aI20
aI10
aI3
aI29
aI37
aI6
aI8
aI109
aI12
aI7
aI135
aI8
aI7
aI11
aI4
aI19
aI9
aI9
aI8
aI7
aI8
aI25
aI7
aI8
aI7
aI14
aI9
aI6
aI6
aI24
aI3
aI8
aI4
aI11
aI27
aI2
aI7
aI14
aa(lp18
I12
aI12
aI11
aI9
aI12
aI12
aI9
aI15
aI42
aI59
aI9
aI8
aI14
aI8
aI14
aI8
aI8
aI0
aI2
aI18
aI12
aI11
aI29
aI41
aI6
aI4
aI105
aI15
aI10
aI139
aI11
aI14
aI7
aI11
aI13
aI14
aI14
aI2
aI10
aI12
aI26
aI7
aI4
aI10
aI12
aI16
aI8
aI8
aI26
aI9
aI8
aI10
aI12
aI21
aI12
aI10
aI12
aa(lp19
I11
aI11
aI11
aI12
aI11
aI12
aI9
aI14
aI42
aI58
aI8
aI9
aI14
aI8
aI14
aI8
aI9
aI2
aI0
aI18
aI14
aI9
aI30
aI41
aI7
aI5
aI106
aI15
aI10
aI139
aI11
aI14
aI7
aI10
aI12
aI15
aI14
aI2
aI10
aI13
aI26
aI6
aI5
aI10
aI12
aI16
aI8
aI7
aI26
aI10
aI7
aI10
aI12
aI20
aI11
aI9
aI12
aa(lp20
I25
aI25
aI24
aI21
aI25
aI18
aI17
aI24
aI39
aI52
aI22
aI24
aI21
aI20
aI22
aI17
aI24
aI19
aI18
aI0
aI23
aI24
aI19
aI36
aI18
aI18
aI95
aI25
aI23
aI132
aI16
aI21
aI17
aI21
aI25
aI24
aI25
aI19
aI18
aI24
aI26
aI21
aI18
aI18
aI25
aI25
aI20
aI19
aI26
aI20
aI21
aI20
aI18
aI38
aI23
aI20
aI26
aa(lp21
I8
aI14
aI6
aI5
aI8
aI18
aI13
aI8
aI45
aI63
aI13
aI12
aI15
aI11
aI10
aI16
aI12
aI14
aI13
aI23
aI0
aI10
aI33
aI38
aI14
aI15
aI111
aI15
aI4
aI138
aI17
aI9
aI17
aI9
aI15
aI11
aI9
aI14
aI14
aI2
aI25
aI14
aI12
aI14
aI10
aI11
aI12
aI13
aI26
aI11
aI15
aI12
aI18
aI22
aI10
aI13
aI10
aa(lp22
I10
aI17
aI6
aI10
aI10
aI15
aI8
aI8
aI47
aI58
aI6
aI4
aI13
aI8
aI8
aI10
aI4
aI10
aI8
aI22
aI10
aI0
aI31
aI36
aI8
aI10
aI109
aI12
aI4
aI136
aI13
aI7
aI12
aI6
aI17
aI10
aI9
aI10
aI11
aI7
aI24
aI10
aI8
aI11
aI12
aI10
aI8
aI8
aI24
aI8
aI10
aI10
aI15
aI26
aI2
aI10
aI12
aa(lp23
I37
aI41
aI32
aI38
aI37
aI22
aI26
aI28
aI48
aI42
aI28
aI28
aI20
aI26
aI25
aI23
aI30
aI30
aI30
aI21
aI34
aI30
aI0
aI34
aI27
aI27
aI101
aI21
aI34
aI123
aI21
aI27
aI24
aI27
aI42
aI24
aI31
aI30
aI23
aI33
aI17
aI28
aI29
aI23
aI38
aI25
aI27
aI27
aI17
aI27
aI28
aI24
aI22
aI47
aI28
aI26
aI38
aa(lp24
I44
aI43
aI39
aI46
aI44
aI32
aI39
aI34
aI57
aI22
aI40
aI42
aI29
aI36
aI34
aI40
aI42
aI41
aI40
aI32
aI43
aI40
aI29
aI0
aI39
aI41
aI117
aI28
aI40
aI116
aI32
aI35
aI39
aI36
aI43
aI31
aI36
aI40
aI34
aI41
aI19
aI41
aI39
aI34
aI44
aI31
aI41
aI39
aI19
aI37
aI42
aI36
aI32
aI42
aI40
aI38
aI44
aa(lp25
I13
aI16
aI11
aI14
aI13
aI7
aI4
aI14
aI44
aI56
aI6
aI9
aI11
aI5
aI10
aI5
aI9
aI4
aI3
aI17
aI14
aI10
aI26
aI35
aI0
aI2
aI105
aI10
aI11
aI134
aI8
aI10
aI7
aI8
aI17
aI12
aI15
aI4
aI5
aI13
aI23
aI4
aI2
aI5
aI15
aI13
aI6
aI4
aI22
aI6
aI4
aI6
aI7
aI23
aI10
aI5
aI15
aa(lp26
I15
aI14
aI12
aI15
aI15
aI8
aI4
aI16
aI43
aI60
aI9
aI10
aI14
aI7
aI12
aI3
aI10
aI3
aI4
aI16
aI16
aI11
aI26
aI38
aI4
aI0
aI104
aI13
aI13
aI137
aI7
aI13
aI6
aI12
aI15
aI14
aI16
aI3
aI7
aI15
aI25
aI6
aI1
aI7
aI15
aI16
aI8
aI7
aI25
aI8
aI8
aI8
aI8
aI24
aI11
aI7
aI15
aa(lp27
I111
aI108
aI114
aI109
aI111
aI109
aI106
aI113
aI93
aI114
aI110
aI111
aI108
aI108
aI112
aI107
aI112
aI106
aI106
aI92
aI114
aI113
aI100
aI114
aI106
aI106
aI0
aI108
aI114
aI194
aI105
aI114
aI102
aI110
aI111
aI111
aI115
aI107
aI109
aI114
aI114
aI110
aI107
aI109
aI111
aI111
aI110
aI109
aI114
aI109
aI110
aI111
aI109
aI118
aI113
aI106
aI111
aa(lp28
I21
aI27
aI13
aI22
aI21
aI10
aI12
aI9
aI54
aI50
aI14
aI17
aI5
aI10
aI7
aI14
aI16
aI15
aI14
aI20
aI18
aI13
aI21
aI31
aI13
aI14
aI108
aI0
aI14
aI127
aI9
aI8
aI16
aI9
aI28
aI5
aI10
aI16
aI10
aI18
aI16
aI13
aI14
aI10
aI23
aI6
aI13
aI10
aI16
aI11
aI13
aI9
aI10
aI35
aI12
aI12
aI23
aa(lp29
I11
aI18
aI5
aI9
aI11
aI17
aI12
aI8
aI45
aI63
aI13
aI12
aI15
aI10
aI10
aI14
aI11
aI12
aI12
aI21
aI4
aI9
aI33
aI38
aI13
aI14
aI111
aI14
aI0
aI139
aI17
aI8
aI16
aI9
aI19
aI11
aI8
aI13
aI14
aI2
aI25
aI15
aI12
aI14
aI13
aI10
aI12
aI11
aI25
aI11
aI13
aI12
aI17
aI27
aI11
aI13
aI13
aa(lp30
I143
aI143
aI136
aI143
aI143
aI129
aI134
aI132
aI143
aI104
aI135
aI135
aI124
aI133
aI130
aI135
aI139
aI136
aI136
aI131
aI143
aI136
aI123
aI115
aI134
aI135
aI143
aI123
aI139
aI0
aI130
aI132
aI136
aI134
aI143
aI129
aI135
aI136
aI130
aI144
aI123
aI135
aI136
aI130
aI143
aI129
aI135
aI134
aI123
aI134
aI135
aI132
aI129
aI144
aI136
aI134
aI143
aa(lp31
I18
aI20
aI16
aI16
aI18
aI3
aI8
aI13
aI49
aI52
aI9
aI15
aI8
aI8
aI8
aI7
aI14
aI10
aI9
aI16
aI17
aI13
aI20
aI33
aI6
aI8
aI107
aI9
aI13
aI133
aI0
aI8
aI10
aI7
aI21
aI10
aI14
aI9
aI3
aI15
aI20
aI9
aI8
aI3
aI20
aI11
aI9
aI9
aI20
aI8
aI10
aI6
aI3
aI30
aI9
aI9
aI20
aa(lp32
I15
aI20
aI8
aI12
aI15
aI11
aI8
aI8
aI52
aI57
aI11
aI10
aI9
aI6
aI4
aI11
aI10
aI13
aI11
aI23
aI11
aI5
aI29
aI34
aI9
aI11
aI111
aI9
aI9
aI133
aI11
aI0
aI14
aI5
aI21
aI6
aI7
aI13
aI10
aI10
aI22
aI12
aI11
aI10
aI16
aI7
aI10
aI8
aI21
aI6
aI12
aI8
aI11
aI29
aI4
aI10
aI16
aa(lp33
I17
aI19
aI16
aI16
aI17
aI10
aI11
aI18
aI42
aI60
aI13
aI12
aI17
aI10
aI17
aI7
aI13
aI7
aI9
aI15
aI19
aI13
aI25
aI39
aI9
aI6
aI103
aI17
aI15
aI134
aI10
aI16
aI0
aI14
aI20
aI18
aI18
aI7
aI8
aI17
aI27
aI12
aI8
aI8
aI20
aI19
aI10
aI10
aI27
aI11
aI11
aI11
aI10
aI28
aI14
aI13
aI19
aa(lp34
I16
aI20
aI9
aI12
aI16
aI11
aI7
aI8
aI49
aI57
aI8
aI11
aI11
aI4
aI6
aI8
aI12
aI11
aI10
aI20
aI11
aI7
aI29
aI35
aI7
aI9
aI110
aI9
aI8
aI134
aI10
aI4
aI11
aI0
aI21
aI8
aI9
aI10
aI8
aI10
aI23
aI10
aI9
aI8
aI18
aI8
aI7
aI8
aI22
aI5
aI10
aI5
aI11
aI30
aI6
aI8
aI18
aa(lp35
I9
aI5
aI18
aI12
aI9
aI24
aI19
aI21
aI36
aI68
aI19
aI19
aI26
aI19
aI21
aI22
aI18
aI15
aI15
aI27
aI15
aI18
aI37
aI44
aI17
aI19
aI107
aI26
aI17
aI144
aI23
aI20
aI22
aI19
aI0
aI23
aI20
aI17
aI20
aI15
aI37
aI18
aI16
aI20
aI7
aI23
aI19
aI18
aI38
aI19
aI18
aI20
aI24
aI17
aI19
aI20
aI7
aa(lp36
I19
aI22
aI11
aI17
aI19
aI12
aI13
aI5
aI55
aI53
aI12
aI16
aI8
aI9
aI3
aI14
aI15
aI16
aI14
aI24
aI14
aI10
aI25
aI30
aI13
aI14
aI110
aI7
aI11
aI129
aI11
aI3
aI17
aI7
aI23
aI0
aI8
aI16
aI12
aI13
aI19
aI13
aI14
aI12
aI20
aI4
aI14
aI9
aI19
aI11
aI12
aI9
aI12
aI34
aI9
aI13
aI20
aa(lp37
I15
aI22
aI8
aI13
aI15
aI18
aI17
aI5
aI53
aI57
aI16
aI16
aI12
aI15
aI8
aI17
aI16
aI17
aI17
aI26
aI11
aI10
aI30
aI33
aI17
aI17
aI115
aI11
aI9
aI135
aI17
aI8
aI20
aI13
aI23
aI7
aI0
aI18
aI16
aI9
aI21
aI18
aI18
aI16
aI16
aI6
aI18
aI16
aI21
aI14
aI18
aI14
aI18
aI28
aI11
aI15
aI16
aa(lp38
I13
aI12
aI13
aI11
aI13
aI10
aI8
aI14
aI42
aI61
aI10
aI9
aI16
aI8
aI13
aI7
aI9
aI1
aI2
aI17
aI14
aI9
aI28
aI40
aI5
aI4
aI104
aI15
aI12
aI137
aI10
aI14
aI6
aI12
aI13
aI16
aI16
aI0
aI9
aI14
aI27
aI7
aI4
aI9
aI13
aI15
aI8
aI9
aI27
aI9
aI9
aI10
aI10
aI22
aI9
aI10
aI13
aa(lp39
I17
aI20
aI14
aI16
aI17
aI3
aI8
aI11
aI49
aI52
aI8
aI12
aI8
aI8
aI7
aI8
aI12
aI10
aI9
aI18
aI16
aI10
aI23
aI33
aI7
aI9
aI107
aI7
aI12
aI131
aI3
aI7
aI13
aI6
aI21
aI9
aI12
aI10
aI0
aI13
aI19
aI8
aI8
aI1
aI19
aI9
aI7
aI8
aI19
aI8
aI8
aI4
aI3
aI29
aI8
aI7
aI19
aa(lp40
I8
aI15
aI5
aI5
aI8
aI17
aI12
aI8
aI45
aI63
aI12
aI11
aI15
aI11
aI9
aI16
aI11
aI11
aI11
aI22
aI2
aI9
aI33
aI38
aI13
aI14
aI111
aI15
aI1
aI138
aI17
aI8
aI17
aI8
aI15
aI11
aI9
aI12
aI14
aI0
aI25
aI14
aI12
aI14
aI9
aI11
aI12
aI10
aI26
aI11
aI12
aI13
aI17
aI23
aI11
aI13
aI9
aa(lp41
I34
aI39
aI25
aI33
aI34
aI20
aI25
aI21
aI56
aI46
aI26
aI30
aI17
aI24
aI20
aI27
aI29
aI29
aI29
aI30
aI30
aI27
aI16
aI22
aI25
aI28
aI106
aI15
aI28
aI125
aI20
aI22
aI28
aI23
aI40
aI18
aI23
aI29
aI21
aI29
aI0
aI27
aI27
aI21
aI36
aI18
aI25
aI24
aI2
aI24
aI27
aI22
aI20
aI48
aI26
aI25
aI36
aa(lp42
I10
aI15
aI10
aI11
aI10
aI11
aI6
aI12
aI47
aI58
aI6
aI8
aI13
aI4
aI9
aI7
aI7
aI6
aI5
aI18
aI12
aI6
aI30
aI38
aI5
aI6
aI107
aI12
aI9
aI136
aI10
aI8
aI11
aI8
aI17
aI12
aI12
aI7
aI8
aI11
aI25
aI0
aI5
aI8
aI12
aI11
aI3
aI3
aI25
aI5
aI1
aI6
aI11
aI24
aI5
aI7
aI12
aa(lp43
I12
aI14
aI11
aI15
aI12
aI9
aI5
aI15
aI42
aI58
aI7
aI8
aI12
aI5
aI12
aI4
aI8
aI3
aI3
aI18
aI14
aI9
aI28
aI38
aI3
aI2
aI105
aI11
aI12
aI137
aI9
aI12
aI7
aI10
aI15
aI12
aI15
aI2
aI7
aI13
aI25
aI4
aI0
aI7
aI13
aI15
aI6
aI5
aI25
aI6
aI6
aI7
aI9
aI22
aI10
aI7
aI13
aa(lp44
I17
aI20
aI14
aI16
aI17
aI3
aI8
aI11
aI49
aI52
aI8
aI12
aI8
aI8
aI7
aI8
aI12
aI10
aI9
aI18
aI16
aI10
aI23
aI33
aI7
aI9
aI107
aI7
aI12
aI131
aI3
aI7
aI13
aI6
aI21
aI9
aI12
aI10
aI1
aI13
aI19
aI8
aI8
aI0
aI19
aI9
aI7
aI8
aI19
aI8
aI8
aI4
aI3
aI29
aI8
aI7
aI19
aa(lp45
I4
aI10
aI12
aI11
aI4
aI18
aI14
aI17
aI39
aI67
aI14
aI14
aI21
aI14
aI18
aI16
aI14
aI9
aI10
aI27
aI11
aI13
aI37
aI43
aI12
aI13
aI109
aI20
aI11
aI145
aI18
aI16
aI19
aI17
aI12
aI20
aI16
aI10
aI16
aI10
aI32
aI15
aI12
aI16
aI0
aI19
aI13
aI13
aI33
aI16
aI14
aI16
aI18
aI19
aI16
aI15
aI3
aa(lp46
I19
aI25
aI9
aI17
aI19
aI11
aI12
aI3
aI55
aI52
aI12
aI15
aI8
aI9
aI4
aI14
aI15
aI16
aI15
aI25
aI14
aI9
aI24
aI30
aI14
aI14
aI110
aI6
aI11
aI129
aI11
aI4
aI18
aI8
aI25
aI3
aI6
aI16
aI12
aI12
aI17
aI13
aI14
aI12
aI21
aI0
aI13
aI10
aI17
aI11
aI13
aI9
aI11
aI33
aI9
aI13
aI21
aa(lp47
I12
aI18
aI8
aI10
aI12
aI10
aI6
aI8
aI47
aI58
aI3
aI5
aI11
aI3
aI8
aI7
aI5
aI8
aI8
aI20
aI12
aI3
aI29
aI37
aI6
aI8
aI108
aI11
aI6
aI136
aI9
aI6
aI11
aI5
aI19
aI9
aI10
aI8
aI7
aI8
aI24
aI3
aI7
aI7
aI13
aI9
aI0
aI3
aI24
aI3
aI2
aI5
aI10
aI27
aI2
aI7
aI13
aa(lp48
I10
aI16
aI9
aI10
aI10
aI9
aI4
aI10
aI47
aI57
aI4
aI8
aI10
aI1
aI7
aI7
aI8
aI7
aI7
aI20
aI10
aI5
aI28
aI36
aI5
aI6
aI108
aI10
aI8
aI135
aI9
aI7
aI10
aI5
aI17
aI10
aI10
aI7
aI7
aI9
aI23
aI2
aI5
aI7
aI13
aI9
aI2
aI0
aI22
aI2
aI1
aI4
aI9
aI25
aI4
aI6
aI13
aa(lp49
I35
aI39
aI25
aI36
aI35
aI21
aI25
aI21
aI56
aI46
aI26
aI30
aI18
aI25
aI20
aI27
aI29
aI29
aI28
aI30
aI30
aI27
aI16
aI22
aI25
aI28
aI106
aI15
aI28
aI125
aI20
aI22
aI28
aI23
aI40
aI18
aI23
aI29
aI21
aI29
aI1
aI27
aI27
aI21
aI36
aI18
aI25
aI24
aI0
aI25
aI27
aI22
aI21
aI48
aI26
aI25
aI36
aa(lp50
I15
aI19
aI11
aI13
aI15
aI7
aI4
aI13
aI47
aI56
aI7
aI9
aI10
aI3
aI9
aI5
aI10
aI7
aI6
aI18
aI15
aI9
aI26
aI35
aI5
aI6
aI107
aI10
aI12
aI134
aI7
aI9
aI10
aI7
aI20
aI11
aI13
aI7
aI5
aI14
aI22
aI6
aI6
aI5
aI17
aI12
aI6
aI3
aI22
aI0
aI6
aI3
aI7
aI27
aI9
aI5
aI17
aa(lp51
I10
aI16
aI10
aI11
aI10
aI11
aI6
aI12
aI46
aI58
aI6
aI9
aI13
aI4
aI8
aI7
aI8
aI7
aI6
aI20
aI11
aI6
aI30
aI38
aI5
aI7
aI108
aI13
aI9
aI136
aI10
aI8
aI11
aI8
aI17
aI11
aI12
aI8
aI8
aI10
aI25
aI1
aI5
aI8
aI12
aI12
aI4
aI4
aI24
aI5
aI0
aI5
aI11
aI25
aI5
aI7
aI12
aa(lp52
I13
aI18
aI11
aI12
aI13
aI8
aI3
aI11
aI47
aI55
aI5
aI7
aI10
aI3
aI8
aI5
aI8
aI7
aI6
aI18
aI13
aI8
aI26
aI35
aI3
aI5
aI108
aI10
aI10
aI133
aI7
aI9
aI10
aI7
aI19
aI11
aI12
aI7
aI5
aI12
aI22
aI4
aI4
aI5
aI15
aI11
aI3
aI2
aI23
aI3
aI4
aI0
aI8
aI26
aI8
aI5
aI14
aa(lp53
I20
aI22
aI14
aI15
aI20
aI3
aI9
aI13
aI49
aI50
aI10
aI14
aI8
aI10
aI8
aI8
aI14
aI10
aI10
aI17
aI18
aI12
aI19
aI31
aI8
aI9
aI107
aI8
aI14
aI127
aI3
aI9
aI11
aI8
aI23
aI10
aI14
aI10
aI3
aI15
aI17
aI11
aI9
aI3
aI22
aI10
aI8
aI10
aI17
aI10
aI10
aI6
aI0
aI30
aI9
aI9
aI22
aa(lp54
I12
aI11
aI20
aI14
aI12
aI21
aI17
aI22
aI38
aI71
aI17
aI16
aI25
aI16
aI22
aI18
aI16
aI13
aI14
aI28
aI17
aI18
aI41
aI43
aI15
aI15
aI115
aI25
aI17
aI145
aI21
aI22
aI20
aI17
aI12
aI23
aI21
aI13
aI19
aI17
aI36
aI15
aI13
aI19
aI11
aI24
aI16
aI16
aI37
aI17
aI16
aI17
aI21
aI0
aI20
aI17
aI10
aa(lp55
I13
aI17
aI7
aI11
aI13
aI11
aI8
aI7
aI50
aI58
aI6
aI5
aI12
aI7
aI7
aI8
aI5
aI10
aI9
aI21
aI9
aI2
aI29
aI35
aI8
aI9
aI109
aI12
aI5
aI135
aI10
aI6
aI11
aI6
aI18
aI8
aI8
aI10
aI9
aI7
aI23
aI10
aI9
aI9
aI14
aI8
aI8
aI8
aI24
aI7
aI10
aI7
aI11
aI27
aI0
aI8
aI14
aa(lp56
I16
aI18
aI15
aI15
aI16
aI8
aI3
aI13
aI47
aI55
aI8
aI12
aI9
aI7
aI8
aI6
aI12
aI8
aI7
aI18
aI17
aI11
aI26
aI34
aI5
aI7
aI107
aI9
aI12
aI133
aI7
aI9
aI10
aI7
aI19
aI11
aI14
aI7
aI4
aI15
aI21
aI8
aI6
aI4
aI18
aI12
aI7
aI7
aI21
aI7
aI8
aI4
aI8
aI28
aI10
aI0
aI18
aa(lp57
I4
aI10
aI11
aI11
aI4
aI18
aI14
aI17
aI39
aI67
aI14
aI14
aI21
aI14
aI18
aI16
aI14
aI9
aI10
aI27
aI11
aI11
aI37
aI43
aI12
aI13
aI109
aI20
aI11
aI145
aI18
aI16
aI19
aI16
aI12
aI20
aI16
aI10
aI16
aI10
aI32
aI15
aI11
aI16
aI3
aI19
aI13
aI13
aI33
aI16
aI14
aI16
aI18
aI18
aI16
aI15
aI0
aa.