(lp0
(lp1
I0
aI52
aI58
aI54
aI46
aI47
aI81
aI47
aI58
aI54
aI61
aI54
aI54
aI52
aI39
aI46
aI17
aI39
aI49
aI55
aI119
aI53
aI113
aI48
aI57
aI51
aI53
aI52
aI46
aI50
aI44
aI45
aI56
aI51
aI56
aI47
aI49
aI45
aI55
aI58
aI54
aI57
aI50
aI58
aI41
aI55
aI51
aI54
aI52
aI56
aI51
aI48
aI48
aI81
aI46
aI52
aI51
aI54
aI56
aI52
aI51
aI50
aI52
aI52
aI45
aI56
aa(lp2
I49
aI0
aI13
aI24
aI9
aI10
aI84
aI8
aI17
aI26
aI67
aI38
aI4
aI8
aI16
aI22
aI36
aI16
aI11
aI4
aI109
aI58
aI136
aI7
aI17
aI9
aI10
aI6
aI11
aI8
aI26
aI10
aI11
aI10
aI12
aI8
aI14
aI10
aI18
aI10
aI2
aI12
aI8
aI13
aI12
aI18
aI8
aI2
aI9
aI22
aI8
aI8
aI8
aI84
aI10
aI9
aI7
aI4
aI10
aI26
aI2
aI8
aI2
aI6
aI10
aI13
aa(lp3
I53
aI11
aI0
aI15
aI11
aI10
aI81
aI12
aI9
aI18
aI58
aI31
aI10
aI6
aI19
aI20
aI41
aI19
aI12
aI9
aI104
aI63
aI141
aI13
aI11
aI12
aI8
aI10
aI11
aI7
aI23
aI14
aI9
aI10
aI9
aI12
aI13
aI13
aI12
aI7
aI11
aI9
aI6
aI6
aI17
aI12
aI7
aI6
aI10
aI16
aI7
aI10
aI9
aI81
aI12
aI12
aI9
aI6
aI8
aI20
aI13
aI10
aI11
aI8
aI14
aI13
aa(lp4
I58
aI16
aI16
aI0
aI17
aI17
aI85
aI19
aI10
aI18
aI53
aI32
aI16
aI14
aI26
aI30
aI43
aI26
aI19
aI16
aI114
aI69
aI145
aI19
aI8
aI18
aI15
aI15
aI20
aI15
aI30
aI22
aI10
aI15
aI9
aI19
aI21
aI22
aI24
aI14
aI16
aI17
aI13
aI16
aI24
aI24
aI15
aI15
aI16
aI14
aI15
aI17
aI16
aI85
aI20
aI17
aI17
aI15
aI9
aI20
aI18
aI17
aI16
aI15
aI24
aI7
aa(lp5
I44
aI9
aI14
aI27
aI0
aI3
aI83
aI11
aI19
aI27
aI68
aI42
aI10
aI7
aI12
aI19
aI34
aI12
aI8
aI9
aI108
aI53
aI131
aI7
aI20
aI12
aI8
aI11
aI4
aI6
aI25
aI9
aI15
aI6
aI17
aI11
aI7
aI9
aI18
aI12
aI8
aI14
aI6
aI14
aI6
aI18
aI7
aI10
aI6
aI24
aI7
aI3
aI5
aI83
aI10
aI7
aI5
aI11
aI15
aI27
aI8
aI5
aI9
aI6
aI5
aI21
aa(lp6
I46
aI8
aI13
aI26
aI4
aI0
aI83
aI12
aI18
aI28
aI68
aI39
aI10
aI6
aI13
aI18
aI35
aI13
aI7
aI8
aI107
aI55
aI133
aI9
aI19
aI12
aI7
aI11
aI5
aI6
aI23
aI12
aI14
aI5
aI18
aI12
aI8
aI12
aI18
aI13
aI8
aI14
aI5
aI14
aI10
aI18
aI6
aI10
aI6
aI24
aI6
aI3
aI4
aI83
aI13
aI7
aI4
aI10
aI14
aI28
aI9
aI4
aI8
aI5
aI7
aI20
aa(lp7
I112
aI108
aI104
aI112
aI105
aI104
aI0
aI109
aI104
aI112
aI108
aI108
aI107
aI102
aI108
aI89
aI108
aI108
aI102
aI106
aI44
aI108
aI39
aI109
aI107
aI110
aI102
aI108
aI105
aI102
aI88
aI106
aI108
aI105
aI110
aI109
aI102
aI106
aI93
aI105
aI106
aI99
aI102
aI104
aI104
aI93
aI102
aI105
aI106
aI110
aI102
aI104
aI103
aI66
aI108
aI106
aI105
aI105
aI106
aI112
aI108
aI102
aI108
aI106
aI105
aI113
aa(lp8
I46
aI7
aI20
aI24
aI11
aI12
aI86
aI0
aI23
aI30
aI72
aI41
aI13
aI15
aI10
aI27
aI33
aI10
aI17
aI12
aI116
aI57
aI133
aI5
aI24
aI4
aI15
aI8
aI14
aI15
aI31
aI4
aI16
aI14
aI19
aI1
aI17
aI5
aI26
aI15
aI12
aI17
aI15
aI20
aI11
aI26
aI15
aI9
aI15
aI25
aI14
aI11
aI13
aI86
aI5
aI15
aI15
aI9
aI17
aI30
aI7
aI14
aI7
aI12
aI9
aI15
aa(lp9
I56
aI18
aI10
aI13
aI20
aI21
aI81
aI21
aI0
aI14
aI58
aI29
aI19
aI14
aI25
aI27
aI44
aI25
aI22
aI17
aI104
aI68
aI144
aI21
aI12
aI19
aI15
aI16
aI20
aI16
aI26
aI23
aI10
aI19
aI8
aI21
aI23
aI23
aI16
aI12
aI16
aI16
aI15
aI10
aI25
aI17
aI16
aI14
aI18
aI10
aI16
aI19
aI18
aI81
aI22
aI20
aI19
aI14
aI8
aI17
aI20
aI18
aI18
aI17
aI22
aI12
aa(lp10
I57
aI24
aI22
aI11
aI28
aI27
aI85
aI28
aI13
aI0
aI53
aI30
aI25
aI22
aI34
aI37
aI38
aI34
aI28
aI24
aI114
aI72
aI144
aI27
aI14
aI26
aI22
aI22
aI28
aI23
aI34
aI30
aI16
aI23
aI13
aI27
aI30
aI30
aI32
aI20
aI25
aI23
aI22
aI22
aI33
aI32
aI23
aI21
aI25
aI9
aI23
aI27
aI26
aI85
aI28
aI26
aI25
aI21
aI16
aI13
aI26
aI26
aI24
aI23
aI28
aI12
aa(lp11
I87
aI67
aI63
aI59
aI69
aI67
aI84
aI68
aI60
aI58
aI0
aI60
aI65
aI61
aI74
aI78
aI89
aI74
aI68
aI65
aI104
aI101
aI157
aI69
aI59
aI68
aI63
aI67
aI70
aI65
aI83
aI70
aI59
aI65
aI60
aI68
aI69
aI70
aI67
aI63
aI64
aI65
aI63
aI64
aI72
aI68
aI65
aI64
aI67
aI59
aI65
aI66
aI65
aI84
aI70
aI67
aI65
aI62
aI59
aI61
aI66
aI65
aI67
aI66
aI70
aI60
aa(lp12
I26
aI39
aI36
aI31
aI42
aI39
aI76
aI42
aI33
aI41
aI49
aI0
aI41
aI36
aI47
aI46
aI36
aI47
aI40
aI39
aI107
aI47
aI140
aI41
aI33
aI41
aI36
aI40
aI41
aI36
aI43
aI44
aI37
aI38
aI36
aI42
aI42
aI44
aI42
aI36
aI39
aI38
aI36
aI36
aI46
aI41
aI36
aI36
aI38
aI31
aI36
aI40
aI37
aI76
aI42
aI40
aI40
aI36
aI33
aI27
aI41
aI38
aI39
aI37
aI42
aI36
aa(lp13
I49
aI3
aI13
aI25
aI5
aI4
aI83
aI8
aI18
aI27
aI67
aI39
aI0
aI8
aI16
aI20
aI37
aI16
aI9
aI3
aI109
aI58
aI135
aI7
aI19
aI9
aI8
aI7
aI7
aI8
aI24
aI9
aI13
aI7
aI14
aI9
aI11
aI9
aI18
aI13
aI3
aI12
aI7
aI14
aI12
aI19
aI8
aI4
aI8
aI23
aI8
aI3
aI5
aI83
aI10
aI8
aI6
aI5
aI13
aI27
aI2
aI6
aI3
aI7
aI9
aI15
aa(lp14
I49
aI9
aI7
aI21
aI9
aI11
aI81
aI14
aI11
aI20
aI61
aI36
aI9
aI0
aI19
aI18
aI41
aI19
aI8
aI8
aI106
aI58
aI139
aI14
aI12
aI14
aI2
aI14
aI10
aI5
aI23
aI16
aI12
aI6
aI12
aI14
aI12
aI16
aI15
aI12
aI9
aI6
aI6
aI7
aI15
aI15
aI5
aI9
aI7
aI16
aI5
aI10
aI9
aI81
aI15
aI8
aI8
aI8
aI11
aI20
aI11
aI9
aI9
aI6
aI11
aI16
aa(lp15
I39
aI13
aI24
aI33
aI11
aI13
aI83
aI10
aI31
aI38
aI79
aI49
aI18
aI17
aI0
aI25
aI21
aI4
aI18
aI18
aI108
aI49
aI127
aI11
aI32
aI11
aI19
aI12
aI13
aI17
aI29
aI7
aI23
aI16
aI24
aI10
aI17
aI7
aI26
aI23
aI17
aI23
aI16
aI24
aI7
aI25
aI17
aI18
aI17
aI36
aI17
aI14
aI14
aI83
aI9
aI17
aI17
aI18
aI23
aI37
aI14
aI16
aI13
aI16
aI12
aI21
aa(lp16
I46
aI24
aI20
aI33
aI19
aI21
aI77
aI24
aI25
aI37
aI76
aI45
aI24
aI18
aI27
aI0
aI36
aI27
aI18
aI24
aI95
aI52
aI132
aI21
aI25
aI25
aI19
aI24
aI18
aI18
aI9
aI25
aI25
aI21
aI28
aI24
aI17
aI24
aI19
aI21
aI23
aI21
aI19
aI21
aI21
aI20
aI18
aI21
aI21
aI32
aI18
aI20
aI21
aI77
aI24
aI22
aI20
aI20
aI25
aI38
aI23
aI17
aI24
aI19
aI20
aI27
aa(lp17
I14
aI40
aI44
aI40
aI35
aI36
aI75
aI34
aI43
aI58
aI57
aI59
aI42
aI40
aI23
aI32
aI0
aI23
aI39
aI41
aI117
aI22
aI116
aI35
aI43
aI36
aI40
aI40
aI34
aI39
aI28
aI31
aI47
aI41
aI44
aI34
aI36
aI31
aI42
aI45
aI41
aI41
aI41
aI44
aI30
aI42
aI39
aI41
aI39
aI48
aI40
aI37
aI39
aI75
aI33
aI40
aI41
aI40
aI44
aI42
aI40
aI39
aI40
aI38
aI33
aI43
aa(lp18
I39
aI13
aI24
aI33
aI11
aI13
aI83
aI10
aI31
aI38
aI79
aI49
aI18
aI17
aI4
aI25
aI21
aI0
aI18
aI18
aI108
aI49
aI127
aI11
aI32
aI11
aI19
aI12
aI13
aI17
aI29
aI7
aI23
aI16
aI24
aI10
aI17
aI7
aI26
aI23
aI17
aI23
aI16
aI24
aI7
aI25
aI17
aI18
aI17
aI36
aI17
aI14
aI14
aI83
aI9
aI17
aI17
aI18
aI23
aI37
aI14
aI16
aI13
aI16
aI12
aI21
aa(lp19
I48
aI12
aI14
aI26
aI7
aI8
aI80
aI16
aI19
aI28
aI68
aI41
aI12
aI6
aI18
aI15
aI37
aI18
aI0
aI12
aI103
aI60
aI134
aI13
aI18
aI16
aI6
aI15
aI5
aI6
aI19
aI16
aI16
aI9
aI19
aI16
aI5
aI16
aI15
aI14
aI11
aI11
aI5
aI14
aI13
aI15
aI5
aI12
aI9
aI23
aI6
aI8
aI4
aI80
aI16
aI10
aI9
aI13
aI17
aI28
aI11
aI7
aI12
aI9
aI10
aI23
aa(lp20
I49
aI4
aI14
aI24
aI7
aI8
aI84
aI8
aI17
aI26
aI67
aI38
aI4
aI7
aI16
aI21
aI37
aI16
aI10
aI0
aI111
aI58
aI136
aI7
aI18
aI10
aI9
aI7
aI10
aI7
aI25
aI10
aI12
aI8
aI12
aI8
aI12
aI10
aI19
aI10
aI1
aI12
aI7
aI13
aI13
aI18
aI7
aI3
aI7
aI23
aI7
aI6
aI7
aI84
aI10
aI9
aI7
aI5
aI11
aI26
aI3
aI8
aI4
aI6
aI11
aI15
aa(lp21
I118
aI113
aI108
aI117
aI109
aI109
aI60
aI113
aI108
aI118
aI113
aI113
aI112
aI106
aI114
aI92
aI114
aI114
aI106
aI111
aI0
aI114
aI194
aI114
aI111
aI115
aI107
aI113
aI109
aI107
aI90
aI111
aI113
aI110
aI115
aI113
aI106
aI111
aI96
aI109
aI111
aI103
aI107
aI108
aI108
aI96
aI107
aI109
aI111
aI115
aI107
aI109
aI107
aI60
aI112
aI111
aI110
aI109
aI111
aI118
aI113
aI106
aI113
aI111
aI110
aI118
aa(lp22
I37
aI60
aI67
aI77
aI54
aI57
aI79
aI56
aI69
aI81
aI94
aI76
aI64
aI61
aI48
aI50
aI37
aI48
aI57
aI61
aI117
aI0
aI23
aI57
aI74
aI59
aI60
aI62
aI53
aI59
aI48
aI52
aI68
aI59
aI69
aI56
aI56
aI52
aI59
aI67
aI61
aI64
aI58
aI67
aI49
aI60
aI59
aI61
aI59
aI76
aI59
aI58
aI58
aI79
aI54
aI61
aI61
aI62
aI68
aI79
aI60
aI58
aI60
aI59
aI53
aI74
aa(lp23
I108
aI136
aI142
aI143
aI131
aI132
aI118
aI132
aI143
aI142
aI160
aI144
aI139
aI136
aI123
aI131
aI115
aI123
aI135
aI139
aI143
aI104
aI0
aI132
aI143
aI135
aI136
aI137
aI130
aI136
aI131
aI129
aI144
aI135
aI144
aI132
aI133
aI129
aI136
aI143
aI138
aI138
aI134
aI143
aI124
aI136
aI136
aI137
aI136
aI142
aI136
aI134
aI134
aI118
aI130
aI138
aI135
aI138
aI143
aI144
aI136
aI134
aI136
aI136
aI130
aI144
aa(lp24
I46
aI5
aI15
aI23
aI8
aI8
aI84
aI8
aI20
aI29
aI70
aI40
aI10
aI11
aI12
aI23
aI34
aI12
aI11
aI9
aI111
aI57
aI133
aI0
aI21
aI7
aI13
aI8
aI10
aI11
aI25
aI7
aI14
aI12
aI17
aI7
aI12
aI7
aI21
aI12
aI9
aI14
aI10
aI16
aI10
aI20
aI11
aI9
aI12
aI26
aI11
aI6
aI9
aI84
aI8
aI11
aI10
aI9
aI15
aI29
aI4
aI8
aI5
aI10
aI7
aI16
aa(lp25
I55
aI18
aI12
aI9
aI20
aI21
aI83
aI21
aI5
aI15
aI57
aI29
aI18
aI15
aI28
aI27
aI44
aI28
aI22
aI17
aI107
aI68
aI144
aI20
aI0
aI20
aI17
aI17
aI20
aI16
aI27
aI23
aI11
aI18
aI8
aI21
aI23
aI23
aI20
aI12
aI16
aI19
aI16
aI12
aI26
aI18
aI16
aI15
aI18
aI10
aI16
aI19
aI18
aI83
aI22
aI20
aI19
aI15
aI9
aI17
aI19
aI19
aI18
aI18
aI23
aI10
aa(lp26
I48
aI10
aI19
aI25
aI15
aI14
aI85
aI5
aI22
aI28
aI68
aI40
aI16
aI17
aI12
aI26
aI33
aI12
aI18
aI14
aI115
aI57
aI135
aI8
aI23
aI0
aI18
aI5
aI16
aI17
aI30
aI6
aI16
aI18
aI15
aI5
aI19
aI5
aI27
aI13
aI14
aI19
aI18
aI19
aI12
aI26
aI18
aI13
aI17
aI27
aI18
aI14
aI15
aI85
aI5
aI17
aI18
aI13
aI15
aI28
aI11
aI17
aI10
aI16
aI13
aI13
aa(lp27
I51
aI9
aI8
aI22
aI9
aI10
aI81
aI14
aI12
aI23
aI61
aI35
aI9
aI2
aI18
aI17
aI40
aI18
aI7
aI9
aI104
aI61
aI137
aI14
aI13
aI16
aI0
aI14
aI9
aI4
aI22
aI15
aI14
aI7
aI14
aI15
aI11
aI15
aI14
aI11
aI10
aI6
aI5
aI8
aI16
aI14
aI4
aI9
aI9
aI18
aI4
aI9
aI7
aI81
aI15
aI8
aI9
aI9
aI13
aI22
aI9
aI8
aI9
aI7
aI12
aI17
aa(lp28
I51
aI9
aI19
aI22
aI12
aI12
aI85
aI8
aI19
aI25
aI68
aI40
aI14
aI15
aI14
aI25
aI37
aI14
aI17
aI14
aI115
aI58
aI138
aI8
aI20
aI6
aI15
aI0
aI15
aI14
aI29
aI10
aI14
aI16
aI15
aI8
aI17
aI10
aI24
aI11
aI17
aI18
aI14
aI19
aI15
aI24
aI14
aI11
aI15
aI22
aI14
aI11
aI13
aI85
aI9
aI16
aI15
aI10
aI13
aI25
aI10
aI13
aI9
aI12
aI15
aI13
aa(lp29
I43
aI10
aI16
aI28
aI4
aI5
aI82
aI11
aI20
aI29
aI70
aI41
aI12
aI9
aI11
aI18
aI33
aI11
aI9
aI11
aI107
aI52
aI131
aI7
aI21
aI12
aI10
aI12
aI0
aI8
aI26
aI9
aI17
aI8
aI18
aI11
aI4
aI9
aI18
aI16
aI10
aI15
aI7
aI15
aI7
aI18
aI8
aI10
aI9
aI27
aI8
aI8
aI6
aI82
aI11
aI10
aI7
aI11
aI17
aI29
aI8
aI8
aI10
aI9
aI4
aI21
aa(lp30
I49
aI9
aI9
aI22
aI6
aI7
aI82
aI14
aI14
aI22
aI63
aI35
aI9
aI2
aI16
aI18
aI38
aI16
aI6
aI8
aI106
aI58
aI136
aI11
aI15
aI14
aI3
aI14
aI7
aI0
aI22
aI14
aI12
aI4
aI14
aI14
aI7
aI14
aI16
aI14
aI8
aI8
aI1
aI8
aI11
aI15
aI1
aI9
aI6
aI18
aI1
aI6
aI3
aI82
aI15
aI8
aI6
aI9
aI13
aI22
aI10
aI4
aI9
aI3
aI10
aI18
aa(lp31
I46
aI29
aI23
aI38
aI28
aI27
aI76
aI28
aI31
aI42
aI76
aI44
aI27
aI25
aI33
aI4
aI36
aI33
aI23
aI27
aI95
aI50
aI130
aI26
aI32
aI28
aI24
aI29
aI25
aI25
aI0
aI33
aI30
aI26
aI32
aI28
aI23
aI33
aI22
aI29
aI27
aI20
aI24
aI23
aI29
aI24
aI25
aI27
aI27
aI38
aI25
aI26
aI26
aI76
aI32
aI27
aI27
aI27
aI30
aI38
aI27
aI26
aI29
aI26
aI29
aI33
aa(lp32
I43
aI9
aI22
aI26
aI8
aI10
aI83
aI3
aI25
aI33
aI74
aI44
aI15
aI15
aI8
aI25
aI30
aI8
aI15
aI14
aI110
aI52
aI129
aI4
aI25
aI6
aI16
aI10
aI12
aI14
aI29
aI0
aI18
aI13
aI21
aI3
aI16
aI1
aI26
aI17
aI13
aI19
aI14
aI21
aI7
aI25
aI14
aI11
aI13
aI27
aI14
aI11
aI12
aI83
aI3
aI13
aI13
aI10
aI19
aI33
aI9
aI12
aI9
aI13
aI8
aI18
aa(lp33
I55
aI11
aI11
aI13
aI15
aI15
aI83
aI16
aI8
aI17
aI58
aI34
aI13
aI11
aI20
aI25
aI41
aI20
aI17
aI11
aI109
aI67
aI145
aI15
aI9
aI14
aI12
aI12
aI16
aI11
aI26
aI17
aI0
aI14
aI4
aI15
aI19
aI17
aI19
aI10
aI12
aI14
aI12
aI10
aI20
aI16
aI12
aI10
aI14
aI14
aI12
aI15
aI14
aI83
aI16
aI15
aI14
aI9
aI4
aI17
aI15
aI13
aI11
aI11
aI19
aI6
aa(lp34
I49
aI6
aI11
aI23
aI6
aI6
aI82
aI12
aI15
aI24
aI66
aI38
aI7
aI5
aI16
aI18
aI38
aI16
aI9
aI6
aI107
aI58
aI136
aI8
aI17
aI12
aI7
aI11
aI8
aI4
aI25
aI11
aI11
aI0
aI12
aI11
aI10
aI11
aI17
aI11
aI6
aI12
aI4
aI11
aI12
aI17
aI5
aI7
aI1
aI22
aI4
aI5
aI6
aI82
aI12
aI3
aI4
aI7
aI10
aI24
aI5
aI6
aI6
aI1
aI9
aI16
aa(lp35
I56
aI13
aI13
aI13
aI16
aI17
aI82
aI16
aI8
aI17
aI57
aI30
aI14
aI11
aI22
aI26
aI43
aI22
aI19
aI13
aI108
aI67
aI144
aI16
aI9
aI15
aI13
aI13
aI18
aI14
aI27
aI18
aI5
aI15
aI0
aI16
aI21
aI18
aI20
aI11
aI13
aI15
aI13
aI12
aI21
aI19
aI14
aI11
aI14
aI11
aI14
aI16
aI15
aI82
aI18
aI16
aI15
aI11
aI4
aI18
aI15
aI16
aI13
aI13
aI19
aI5
aa(lp36
I47
aI7
aI20
aI24
aI12
aI12
aI86
aI3
aI23
aI30
aI72
aI41
aI12
aI14
aI10
aI26
aI33
aI10
aI17
aI12
aI116
aI57
aI134
aI5
aI24
aI4
aI15
aI8
aI14
aI15
aI30
aI4
aI16
aI14
aI19
aI0
aI17
aI5
aI26
aI15
aI12
aI17
aI14
aI20
aI11
aI25
aI14
aI9
aI14
aI25
aI14
aI12
aI13
aI86
aI5
aI15
aI15
aI9
aI17
aI30
aI7
aI14
aI7
aI12
aI9
aI15
aa(lp37
I47
aI11
aI14
aI26
aI8
aI9
aI81
aI16
aI19
aI28
aI68
aI40
aI12
aI6
aI17
aI15
aI37
aI17
aI2
aI12
aI103
aI58
aI133
aI13
aI19
aI16
aI6
aI15
aI5
aI6
aI19
aI16
aI17
aI9
aI20
aI16
aI0
aI16
aI15
aI14
aI11
aI11
aI6
aI13
aI13
aI15
aI6
aI12
aI9
aI24
aI6
aI8
aI5
aI81
aI16
aI10
aI9
aI13
aI17
aI28
aI11
aI7
aI11
aI9
aI11
aI22
aa(lp38
I43
aI10
aI21
aI26
aI8
aI10
aI83
aI3
aI25
aI33
aI74
aI44
aI15
aI15
aI8
aI24
aI30
aI8
aI15
aI14
aI110
aI52
aI129
aI5
aI25
aI6
aI16
aI10
aI12
aI14
aI29
aI1
aI18
aI13
aI20
aI3
aI16
aI0
aI25
aI17
aI14
aI19
aI14
aI21
aI7
aI25
aI14
aI11
aI13
aI28
aI15
aI11
aI12
aI83
aI3
aI13
aI13
aI10
aI19
aI33
aI9
aI13
aI10
aI13
aI8
aI18
aa(lp39
I52
aI19
aI12
aI26
aI16
aI16
aI78
aI21
aI19
aI28
aI69
aI39
aI18
aI13
aI24
aI14
aI41
aI24
aI13
aI18
aI97
aI59
aI137
aI21
aI21
aI21
aI13
aI20
aI15
aI13
aI21
aI22
aI19
aI16
aI22
aI21
aI13
aI22
aI0
aI17
aI20
aI9
aI14
aI9
aI18
aI5
aI14
aI17
aI17
aI24
aI14
aI16
aI15
aI78
aI21
aI17
aI16
aI14
aI19
aI28
aI20
aI14
aI19
aI16
aI19
aI24
aa(lp40
I53
aI10
aI14
aI16
aI15
aI15
aI85
aI12
aI16
aI20
aI64
aI33
aI14
aI13
aI18
aI23
aI40
aI18
aI17
aI11
aI114
aI63
aI139
aI11
aI17
aI11
aI15
aI6
aI16
aI13
aI28
aI15
aI9
aI15
aI11
aI12
aI19
aI14
aI21
aI0
aI11
aI18
aI15
aI14
aI18
aI19
aI14
aI9
aI13
aI21
aI16
aI14
aI16
aI85
aI14
aI15
aI14
aI9
aI9
aI20
aI12
aI14
aI10
aI13
aI17
aI11
aa(lp41
I49
aI2
aI12
aI23
aI8
aI9
aI84
aI8
aI17
aI25
aI67
aI38
aI4
aI6
aI16
aI21
aI37
aI16
aI10
aI4
aI113
aI58
aI136
aI6
aI17
aI9
aI9
aI7
aI11
aI7
aI25
aI10
aI10
aI7
aI12
aI8
aI13
aI10
aI19
aI10
aI0
aI12
aI7
aI13
aI12
aI18
aI7
aI2
aI7
aI22
aI7
aI7
aI8
aI84
aI9
aI9
aI7
aI4
aI10
aI25
aI1
aI7
aI2
aI5
aI11
aI14
aa(lp42
I56
aI14
aI7
aI25
aI14
aI15
aI78
aI16
aI12
aI25
aI61
aI37
aI13
aI7
aI23
aI15
aI43
aI23
aI11
aI14
aI100
aI63
aI142
aI15
aI13
aI16
aI7
aI15
aI15
aI10
aI18
aI18
aI14
aI13
aI15
aI16
aI14
aI18
aI9
aI11
aI16
aI0
aI10
aI7
aI20
aI8
aI9
aI12
aI14
aI21
aI9
aI13
aI11
aI78
aI16
aI15
aI14
aI11
aI13
aI25
aI15
aI13
aI14
aI11
aI17
aI18
aa(lp43
I48
aI9
aI9
aI23
aI5
aI6
aI81
aI14
aI14
aI22
aI63
aI36
aI9
aI3
aI16
aI17
aI38
aI16
aI6
aI8
aI105
aI58
aI136
aI10
aI15
aI15
aI4
aI13
aI5
aI1
aI22
aI14
aI12
aI4
aI14
aI14
aI7
aI14
aI15
aI13
aI9
aI9
aI0
aI9
aI11
aI15
aI1
aI9
aI5
aI18
aI1
aI6
aI3
aI81
aI14
aI8
aI6
aI9
aI13
aI22
aI9
aI4
aI9
aI4
aI8
aI17
aa(lp44
I52
aI11
aI7
aI15
aI11
aI10
aI81
aI11
aI9
aI18
aI58
aI31
aI10
aI6
aI18
aI18
aI41
aI18
aI12
aI9
aI104
aI63
aI141
aI13
aI10
aI12
aI8
aI11
aI11
aI7
aI21
aI14
aI10
aI10
aI9
aI12
aI13
aI14
aI12
aI8
aI11
aI9
aI6
aI0
aI17
aI12
aI7
aI6
aI10
aI13
aI7
aI10
aI9
aI81
aI12
aI12
aI10
aI6
aI8
aI20
aI13
aI11
aI11
aI8
aI15
aI13
aa(lp45
I39
aI14
aI21
aI29
aI8
aI9
aI82
aI10
aI26
aI34
aI75
aI47
aI17
aI14
aI8
aI20
aI31
aI8
aI14
aI16
aI108
aI50
aI127
aI9
aI28
aI11
aI15
aI15
aI10
aI13
aI28
aI7
aI22
aI13
aI23
aI11
aI13
aI6
aI22
aI22
aI15
aI21
aI14
aI21
aI0
aI22
aI14
aI14
aI13
aI31
aI14
aI11
aI11
aI82
aI8
aI13
aI12
aI14
aI21
aI34
aI12
aI12
aI14
aI13
aI6
aI23
aa(lp46
I52
aI19
aI11
aI26
aI17
aI16
aI78
aI21
aI20
aI28
aI69
aI39
aI18
aI13
aI24
aI13
aI41
aI24
aI13
aI17
aI99
aI59
aI137
aI21
aI21
aI21
aI13
aI20
aI16
aI13
aI21
aI23
aI19
aI16
aI21
aI21
aI13
aI23
aI5
aI17
aI20
aI9
aI14
aI8
aI19
aI0
aI14
aI17
aI17
aI22
aI14
aI17
aI15
aI78
aI22
aI17
aI17
aI15
aI19
aI28
aI20
aI14
aI19
aI16
aI19
aI23
aa(lp47
I49
aI9
aI9
aI23
aI6
aI7
aI81
aI15
aI14
aI22
aI64
aI35
aI8
aI3
aI16
aI18
aI38
aI16
aI6
aI8
aI105
aI58
aI137
aI12
aI15
aI15
aI2
aI14
aI7
aI2
aI22
aI15
aI12
aI4
aI14
aI14
aI9
aI14
aI16
aI15
aI8
aI8
aI1
aI8
aI11
aI15
aI0
aI8
aI6
aI18
aI1
aI6
aI4
aI81
aI16
aI7
aI7
aI8
aI12
aI22
aI10
aI5
aI9
aI3
aI9
aI17
aa(lp48
I49
aI2
aI9
aI21
aI8
aI9
aI84
aI6
aI16
aI23
aI67
aI36
aI4
aI6
aI15
aI19
aI39
aI15
aI10
aI5
aI113
aI58
aI138
aI6
aI16
aI8
aI8
aI6
aI10
aI6
aI24
aI8
aI10
aI7
aI12
aI6
aI12
aI8
aI16
aI6
aI3
aI10
aI6
aI10
aI11
aI16
aI6
aI0
aI7
aI18
aI6
aI7
aI8
aI84
aI7
aI8
aI7
aI4
aI10
aI23
aI2
aI7
aI2
aI4
aI11
aI12
aa(lp49
I49
aI6
aI12
aI24
aI6
aI6
aI83
aI11
aI16
aI25
aI66
aI38
aI7
aI6
aI17
aI21
aI38
aI17
aI9
aI7
aI108
aI59
aI136
aI8
aI17
aI12
aI8
aI10
aI8
aI5
aI25
aI12
aI11
aI2
aI13
aI11
aI11
aI12
aI18
aI13
aI6
aI12
aI5
aI13
aI12
aI17
aI5
aI7
aI0
aI23
aI5
aI5
aI6
aI83
aI12
aI2
aI4
aI7
aI11
aI25
aI5
aI6
aI6
aI2
aI9
aI17
aa(lp50
I58
aI21
aI20
aI11
aI27
aI27
aI84
aI25
aI12
aI8
aI57
aI34
aI23
aI20
aI33
aI35
aI43
aI33
aI27
aI22
aI111
aI69
aI144
aI26
aI12
aI22
aI21
aI20
aI26
aI21
aI34
aI28
aI17
aI22
aI13
aI25
aI28
aI28
aI29
aI19
aI22
aI23
aI21
aI20
aI31
aI29
aI22
aI20
aI22
aI0
aI22
aI25
aI24
aI84
aI26
aI23
aI23
aI19
aI18
aI17
aI22
aI24
aI21
aI21
aI27
aI12
aa(lp51
I49
aI9
aI9
aI23
aI6
aI7
aI81
aI14
aI14
aI22
aI64
aI35
aI8
aI3
aI16
aI18
aI38
aI16
aI6
aI8
aI105
aI58
aI137
aI12
aI15
aI15
aI2
aI13
aI7
aI2
aI22
aI14
aI12
aI3
aI14
aI14
aI9
aI14
aI16
aI14
aI9
aI8
aI2
aI8
aI12
aI15
aI2
aI9
aI6
aI18
aI0
aI6
aI4
aI81
aI15
aI8
aI7
aI8
aI13
aI22
aI10
aI5
aI9
aI3
aI9
aI17
aa(lp52
I46
aI9
aI13
aI27
aI3
aI4
aI82
aI13
aI19
aI27
aI69
aI41
aI10
aI6
aI12
aI18
aI35
aI12
aI7
aI8
aI107
aI56
aI134
aI9
aI20
aI13
aI7
aI12
aI5
aI6
aI22
aI12
aI15
aI6
aI18
aI12
aI8
aI12
aI18
aI13
aI9
aI14
aI6
aI14
aI9
aI18
aI6
aI10
aI7
aI24
aI6
aI0
aI3
aI82
aI13
aI8
aI6
aI10
aI15
aI27
aI9
aI4
aI9
aI7
aI7
aI21
aa(lp53
I45
aI10
aI10
aI23
aI3
aI4
aI81
aI13
aI16
aI24
aI69
aI39
aI12
aI4
aI15
aI16
aI35
aI15
aI6
aI10
aI105
aI55
aI133
aI9
aI17
aI14
aI5
aI14
aI3
aI3
aI22
aI11
aI15
aI6
aI17
aI13
aI6
aI11
aI17
aI13
aI10
aI10
aI2
aI10
aI9
aI16
aI3
aI10
aI8
aI20
aI3
aI7
aI0
aI81
aI13
aI9
aI6
aI11
aI16
aI25
aI10
aI2
aI10
aI6
aI6
aI20
aa(lp54
I112
aI108
aI104
aI112
aI105
aI104
aI66
aI109
aI104
aI112
aI108
aI108
aI107
aI102
aI108
aI89
aI108
aI108
aI102
aI106
aI44
aI108
aI39
aI109
aI107
aI110
aI102
aI108
aI105
aI102
aI88
aI106
aI108
aI105
aI110
aI109
aI102
aI106
aI93
aI105
aI106
aI99
aI102
aI104
aI104
aI93
aI102
aI105
aI106
aI110
aI102
aI104
aI103
aI0
aI108
aI106
aI105
aI105
aI106
aI112
aI108
aI102
aI108
aI106
aI105
aI113
aa(lp55
I45
aI8
aI18
aI25
aI10
aI11
aI84
aI4
aI23
aI32
aI73
aI44
aI13
aI14
aI11
aI25
aI32
aI11
aI15
aI12
aI112
aI55
aI132
aI3
aI24
aI7
aI15
aI11
aI13
aI14
aI31
aI4
aI17
aI14
aI19
aI5
aI16
aI5
aI25
aI16
aI11
aI17
aI14
aI18
aI8
aI25
aI14
aI9
aI13
aI27
aI14
aI11
aI12
aI84
aI0
aI13
aI14
aI9
aI17
aI31
aI7
aI12
aI8
aI13
aI8
aI18
aa(lp56
I49
aI6
aI13
aI23
aI5
aI6
aI83
aI10
aI16
aI25
aI66
aI39
aI7
aI6
aI16
aI20
aI37
aI16
aI9
aI6
aI109
aI59
aI136
aI7
aI17
aI12
aI8
aI10
aI8
aI5
aI24
aI11
aI11
aI3
aI13
aI10
aI12
aI10
aI18
aI11
aI5
aI12
aI4
aI13
aI12
aI17
aI5
aI6
aI1
aI23
aI5
aI4
aI6
aI83
aI11
aI0
aI4
aI7
aI11
aI25
aI5
aI5
aI6
aI3
aI8
aI17
aa(lp57
I48
aI3
aI13
aI25
aI4
aI4
aI83
aI8
aI18
aI27
aI67
aI39
aI5
aI8
aI15
aI20
aI37
aI15
aI8
aI4
aI108
aI58
aI136
aI7
aI18
aI10
aI8
aI7
aI7
aI7
aI24
aI9
aI13
aI4
aI14
aI8
aI10
aI9
aI19
aI10
aI3
aI12
aI6
aI13
aI10
aI19
aI7
aI4
aI2
aI24
aI7
aI3
aI5
aI83
aI9
aI2
aI0
aI5
aI13
aI27
aI2
aI5
aI3
aI4
aI8
aI15
aa(lp58
I50
aI3
aI9
aI21
aI8
aI9
aI84
aI6
aI16
aI23
aI67
aI36
aI4
aI6
aI16
aI19
aI38
aI16
aI10
aI4
aI111
aI58
aI138
aI7
aI16
aI8
aI7
aI6
aI10
aI6
aI25
aI8
aI10
aI6
aI11
aI6
aI12
aI8
aI16
aI6
aI3
aI9
aI6
aI10
aI12
aI16
aI6
aI3
aI6
aI19
aI6
aI8
aI8
aI84
aI7
aI8
aI7
aI0
aI10
aI23
aI2
aI8
aI3
aI5
aI10
aI12
aa(lp59
I55
aI12
aI11
aI13
aI16
aI15
aI83
aI16
aI10
aI17
aI59
aI35
aI13
aI11
aI22
aI26
aI41
aI22
aI17
aI12
aI109
aI67
aI145
aI16
aI11
aI15
aI12
aI12
aI16
aI12
aI24
aI18
aI3
aI14
aI3
aI16
aI18
aI18
aI21
aI10
aI13
aI14
aI11
aI11
aI20
aI16
aI11
aI10
aI14
aI16
aI12
aI15
aI13
aI83
aI16
aI15
aI14
aI9
aI0
aI18
aI15
aI12
aI12
aI11
aI19
aI7
aa(lp60
I51
aI18
aI14
aI12
aI17
aI17
aI86
aI22
aI11
aI12
aI53
aI30
aI16
aI14
aI26
aI28
aI43
aI26
aI18
aI16
aI115
aI71
aI145
aI22
aI12
aI21
aI13
aI19
aI19
aI13
aI28
aI24
aI13
aI15
aI11
aI22
aI20
aI24
aI24
aI13
aI15
aI15
aI13
aI14
aI25
aI24
aI13
aI15
aI16
aI12
aI13
aI17
aI15
aI86
aI22
aI17
aI16
aI15
aI12
aI0
aI20
aI17
aI18
aI14
aI20
aI10
aa(lp61
I48
aI2
aI14
aI25
aI6
aI7
aI84
aI7
aI17
aI27
aI66
aI39
aI5
aI9
aI16
aI21
aI35
aI16
aI10
aI5
aI109
aI58
aI135
aI6
aI18
aI8
aI10
aI6
aI9
aI8
aI25
aI8
aI12
aI10
aI14
aI7
aI11
aI8
aI19
aI11
aI4
aI11
aI8
aI14
aI11
aI18
aI9
aI4
aI10
aI22
aI8
aI7
aI8
aI84
aI8
aI10
aI9
aI5
aI13
aI27
aI0
aI8
aI2
aI9
aI9
aI15
aa(lp62
I47
aI9
aI11
aI24
aI5
aI7
aI81
aI13
aI17
aI24
aI69
aI37
aI9
aI4
aI15
aI16
aI36
aI15
aI4
aI8
aI104
aI57
aI135
aI10
aI18
aI14
aI4
aI13
aI6
aI3
aI22
aI13
aI13
aI4
aI18
aI14
aI6
aI14
aI16
aI13
aI8
aI10
aI3
aI11
aI10
aI16
aI3
aI8
aI5
aI21
aI3
aI5
aI4
aI81
aI14
aI7
aI7
aI9
aI14
aI24
aI9
aI0
aI9
aI4
aI7
aI19
aa(lp63
I49
aI2
aI13
aI24
aI9
aI10
aI84
aI8
aI17
aI26
aI67
aI38
aI4
aI8
aI16
aI22
aI36
aI16
aI11
aI4
aI109
aI58
aI136
aI7
aI17
aI9
aI10
aI6
aI11
aI8
aI26
aI10
aI11
aI10
aI12
aI8
aI14
aI10
aI18
aI10
aI2
aI12
aI8
aI13
aI12
aI18
aI8
aI2
aI9
aI22
aI8
aI8
aI8
aI84
aI10
aI9
aI7
aI4
aI10
aI26
aI2
aI8
aI0
aI6
aI10
aI13
aa(lp64
I49
aI6
aI10
aI22
aI5
aI6
aI82
aI11
aI14
aI23
aI65
aI38
aI5
aI4
aI16
aI19
aI37
aI16
aI9
aI5
aI108
aI58
aI136
aI9
aI14
aI12
aI6
aI11
aI7
aI4
aI23
aI12
aI10
aI2
aI11
aI11
aI10
aI12
aI18
aI12
aI5
aI11
aI3
aI10
aI12
aI17
aI4
aI6
aI2
aI21
aI3
aI5
aI4
aI82
aI12
aI4
aI4
aI6
aI10
aI23
aI6
aI4
aI6
aI0
aI9
aI15
aa(lp65
I43
aI11
aI17
aI28
aI4
aI5
aI83
aI9
aI21
aI31
aI72
aI43
aI12
aI10
aI13
aI20
aI31
aI13
aI8
aI10
aI111
aI52
aI132
aI7
aI23
aI11
aI11
aI13
aI6
aI9
aI28
aI7
aI16
aI9
aI19
aI9
aI9
aI7
aI20
aI18
aI10
aI17
aI8
aI17
aI6
aI19
aI9
aI10
aI10
aI28
aI9
aI6
aI7
aI83
aI9
aI10
aI8
aI10
aI17
aI31
aI7
aI8
aI11
aI9
aI0
aI21
aa(lp66
I56
aI14
aI15
aI10
aI19
aI17
aI85
aI15
aI11
aI17
aI56
aI30
aI16
aI13
aI21
aI27
aI41
aI21
aI20
aI14
aI115
aI72
aI145
aI15
aI11
aI12
aI15
aI12
aI20
aI15
aI27
aI16
aI8
aI18
aI6
aI15
aI22
aI16
aI22
aI12
aI14
aI17
aI15
aI15
aI21
aI22
aI15
aI13
aI17
aI13
aI15
aI18
aI16
aI85
aI16
aI17
aI18
aI12
aI9
aI18
aI15
aI17
aI14
aI14
aI22
aI0
aa.