(lp0
(lp1
I0
aI18
aI35
aI39
aI25
aI36
aI56
aI30
aI18
aI25
aI27
aI30
aI27
aI16
aI15
aI28
aI20
aI20
aI29
aI26
aI1
aI28
aI18
aI28
aI28
aI48
aI26
aI25
aa(lp2
I17
aI0
aI19
aI25
aI9
aI19
aI55
aI15
aI8
aI10
aI14
aI14
aI10
aI25
aI6
aI11
aI11
aI4
aI12
aI9
aI17
aI13
aI1
aI14
aI14
aI33
aI9
aI9
aa(lp3
I33
aI18
aI0
aI10
aI12
aI11
aI38
aI13
aI21
aI14
aI16
aI10
aI12
aI37
aI20
aI10
aI18
aI16
aI8
aI14
aI33
aI13
aI18
aI12
aI12
aI18
aI15
aI15
aa(lp4
I37
aI23
aI8
aI0
aI18
aI12
aI36
aI19
aI25
aI20
aI21
aI14
aI18
aI36
aI25
aI15
aI23
aI21
aI13
aI19
aI37
aI16
aI23
aI16
aI16
aI17
aI20
aI20
aa(lp5
I21
aI5
aI14
aI21
aI0
aI13
aI48
aI12
aI10
aI9
aI13
aI11
aI6
aI30
aI9
aI8
aI13
aI5
aI9
aI7
aI20
aI11
aI5
aI11
aI11
aI29
aI6
aI5
aa(lp6
I28
aI14
aI8
aI16
aI7
aI0
aI44
aI13
aI19
aI13
aI17
aI6
aI10
aI34
aI16
aI5
aI18
aI11
aI3
aI10
aI28
aI11
aI15
aI10
aI10
aI20
aI12
aI11
aa(lp7
I51
aI51
aI42
aI36
aI45
aI44
aI0
aI46
aI53
aI47
aI47
aI45
aI47
aI49
aI53
aI45
aI49
aI50
aI45
aI46
aI51
aI47
aI51
aI47
aI47
aI38
aI49
aI50
aa(lp8
I24
aI10
aI13
aI18
aI7
aI11
aI47
aI0
aI13
aI2
aI7
aI10
aI3
aI29
aI12
aI7
aI8
aI8
aI8
aI11
aI24
aI3
aI10
aI3
aI3
aI27
aI2
aI6
aa(lp9
I16
aI8
aI20
aI25
aI16
aI18
aI53
aI14
aI0
aI8
aI11
aI18
aI13
aI21
aI5
aI15
aI6
aI6
aI15
aI15
aI16
aI13
aI8
aI13
aI13
aI33
aI8
aI10
aa(lp10
I22
aI9
aI16
aI19
aI9
aI13
aI48
aI9
aI10
aI0
aI7
aI14
aI9
aI29
aI10
aI9
aI8
aI6
aI13
aI14
aI22
aI8
aI9
aI8
aI8
aI28
aI7
aI7
aa(lp11
I26
aI16
aI18
aI19
aI17
aI15
aI44
aI10
aI13
aI9
aI0
aI17
aI12
aI26
aI13
aI14
aI5
aI11
aI16
aI18
aI26
aI11
aI16
aI11
aI11
aI28
aI11
aI14
aa(lp12
I26
aI11
aI8
aI14
aI6
aI5
aI45
aI12
aI15
aI11
aI16
aI0
aI10
aI33
aI15
aI4
aI17
aI10
aI2
aI8
aI25
aI13
aI11
aI10
aI10
aI22
aI10
aI8
aa(lp13
I24
aI10
aI10
aI17
aI6
aI10
aI47
aI4
aI13
aI8
aI10
aI10
aI0
aI31
aI12
aI4
aI13
aI8
aI7
aI9
aI24
aI2
aI10
aI2
aI2
aI26
aI2
aI7
aa(lp14
I17
aI25
aI37
aI41
aI32
aI38
aI48
aI28
aI20
aI26
aI23
aI34
aI30
aI0
aI21
aI34
aI21
aI25
aI33
aI32
aI17
aI30
aI25
aI30
aI30
aI47
aI28
aI28
aa(lp15
I16
aI5
aI21
aI27
aI13
aI22
aI54
aI17
aI5
aI10
aI14
aI18
aI13
aI21
aI0
aI14
aI9
aI7
aI18
aI14
aI16
aI15
aI6
aI15
aI15
aI35
aI12
aI12
aa(lp16
I25
aI10
aI11
aI18
aI5
aI9
aI45
aI12
aI15
aI10
aI14
aI4
aI9
aI33
aI14
aI0
aI17
aI10
aI2
aI8
aI25
aI16
aI10
aI13
aI13
aI27
aI11
aI9
aa(lp17
I20
aI11
aI18
aI20
aI16
aI16
aI49
aI15
aI8
aI8
aI7
aI17
aI13
aI20
aI9
aI13
aI0
aI8
aI15
aI19
aI20
aI12
aI11
aI12
aI12
aI30
aI9
aI9
aa(lp18
I19
aI6
aI17
aI22
aI9
aI18
aI53
aI13
aI7
aI7
aI13
aI13
aI7
aI25
aI8
aI10
aI10
aI0
aI12
aI11
aI19
aI12
aI6
aI12
aI12
aI30
aI6
aI5
aa(lp19
I26
aI11
aI8
aI15
aI5
aI5
aI45
aI11
aI15
aI11
aI16
aI2
aI9
aI33
aI15
aI1
aI17
aI9
aI0
aI8
aI25
aI14
aI11
aI10
aI10
aI23
aI11
aI9
aa(lp20
I23
aI8
aI15
aI22
aI9
aI13
aI49
aI17
aI15
aI15
aI19
aI10
aI12
aI32
aI13
aI8
aI19
aI11
aI8
aI0
aI23
aI16
aI8
aI15
aI15
aI28
aI13
aI10
aa(lp21
I2
aI19
aI34
aI39
aI25
aI33
aI56
aI30
aI17
aI24
aI27
aI30
aI27
aI16
aI15
aI28
aI20
aI20
aI29
aI27
aI0
aI28
aI18
aI28
aI28
aI48
aI26
aI25
aa(lp22
I24
aI10
aI10
aI17
aI7
aI10
aI46
aI4
aI13
aI7
aI10
aI10
aI2
aI31
aI12
aI6
aI13
aI8
aI7
aI11
aI24
aI0
aI10
aI1
aI1
aI25
aI1
aI7
aa(lp23
I17
aI1
aI19
aI25
aI9
aI17
aI55
aI15
aI8
aI9
aI14
aI14
aI9
aI24
aI6
aI11
aI11
aI4
aI12
aI9
aI17
aI13
aI0
aI14
aI14
aI33
aI9
aI9
aa(lp24
I24
aI10
aI11
aI17
aI7
aI10
aI46
aI4
aI13
aI7
aI10
aI10
aI3
aI31
aI12
aI6
aI13
aI8
aI7
aI11
aI24
aI1
aI10
aI0
aI1
aI25
aI3
aI7
aa(lp25
I24
aI10
aI11
aI17
aI7
aI10
aI46
aI4
aI13
aI7
aI10
aI10
aI3
aI31
aI12
aI6
aI13
aI8
aI7
aI11
aI24
aI1
aI10
aI1
aI0
aI25
aI3
aI7
aa(lp26
I37
aI24
aI12
aI11
aI20
aI14
aI38
aI16
aI25
aI16
aI18
aI17
aI18
aI41
aI25
aI17
aI21
aI22
aI17
aI21
aI36
aI15
aI24
aI15
aI15
aI0
aI20
aI21
aa(lp27
I24
aI9
aI13
aI17
aI7
aI11
aI50
aI5
aI12
aI7
aI8
aI9
aI2
aI29
aI12
aI5
aI10
aI7
aI7
aI10
aI23
aI4
aI8
aI4
aI4
aI27
aI0
aI4
aa(lp28
I21
aI7
aI15
aI20
aI7
aI11
aI50
aI9
aI10
aI5
aI9
aI10
aI4
aI29
aI10
aI7
aI10
aI7
aI9
aI10
aI21
aI8
aI7
aI7
aI7
aI28
aI4
aI0
aa.