(lp0
(lp1
I0
aI10
aI16
aI16
aI18
aI15
aI15
aI12
aI15
aI38
aI67
aI14
aI13
aI21
aI14
aI16
aI16
aI13
aI10
aI11
aI26
aI10
aI12
aI37
aI41
aI12
aI14
aI109
aI20
aI10
aI145
aI18
aI16
aI19
aI14
aI11
aI18
aI15
aI12
aI16
aI8
aI13
aI13
aI13
aI21
aI16
aI14
aI17
aI13
aI16
aI13
aI15
aI19
aI17
aI17
aI14
aa(lp2
I8
aI0
aI10
aI10
aI17
aI20
aI20
aI18
aI19
aI36
aI68
aI19
aI19
aI25
aI20
aI21
aI21
aI19
aI14
aI14
aI27
aI14
aI18
aI36
aI44
aI16
aI18
aI104
aI25
aI15
aI144
aI23
aI21
aI22
aI20
aI12
aI23
aI19
aI15
aI20
aI13
aI19
aI19
aI15
aI16
aI20
aI19
aI20
aI19
aI20
aI18
aI21
aI24
aI20
aI20
aI19
aa(lp3
I18
aI12
aI0
aI7
aI17
aI22
aI24
aI22
aI25
aI35
aI69
aI22
aI22
aI31
aI24
aI27
aI27
aI23
aI20
aI20
aI35
aI20
aI21
aI37
aI43
aI23
aI22
aI111
aI31
aI20
aI144
aI29
aI26
aI29
aI25
aI12
aI27
aI22
aI21
aI26
aI19
aI24
aI24
aI13
aI29
aI26
aI22
aI26
aI24
aI27
aI22
aI27
aI29
aI26
aI26
aI22
aa(lp4
I18
aI12
aI7
aI0
aI17
aI22
aI24
aI22
aI25
aI35
aI69
aI22
aI22
aI31
aI24
aI27
aI27
aI23
aI20
aI20
aI35
aI20
aI21
aI37
aI43
aI23
aI22
aI111
aI31
aI20
aI144
aI29
aI26
aI29
aI25
aI12
aI27
aI22
aI21
aI26
aI19
aI24
aI24
aI13
aI29
aI26
aI22
aI26
aI24
aI27
aI22
aI27
aI29
aI26
aI26
aI22
aa(lp5
I12
aI11
aI12
aI12
aI0
aI20
aI21
aI20
aI16
aI38
aI71
aI17
aI16
aI25
aI16
aI22
aI18
aI16
aI13
aI14
aI28
aI17
aI18
aI41
aI43
aI15
aI15
aI115
aI25
aI17
aI145
aI21
aI22
aI20
aI17
aI12
aI23
aI21
aI13
aI19
aI17
aI16
aI16
aI12
aI24
aI19
aI16
aI22
aI16
aI17
aI16
aI17
aI20
aI22
aI22
aI16
aa(lp6
I13
aI17
aI22
aI22
aI27
aI0
aI4
aI7
aI7
aI50
aI58
aI6
aI5
aI12
aI7
aI7
aI8
aI5
aI10
aI9
aI21
aI9
aI2
aI29
aI35
aI8
aI9
aI109
aI12
aI5
aI135
aI10
aI6
aI11
aI6
aI18
aI8
aI8
aI10
aI9
aI7
aI8
aI8
aI21
aI19
aI9
aI10
aI10
aI8
aI6
aI10
aI7
aI12
aI10
aI10
aI10
aa(lp7
I15
aI20
aI26
aI26
aI28
aI4
aI0
aI7
aI5
aI50
aI57
aI9
aI9
aI10
aI5
aI7
aI9
aI8
aI11
aI10
aI22
aI10
aI4
aI29
aI34
aI9
aI9
aI109
aI10
aI7
aI134
aI10
aI5
aI12
aI3
aI21
aI7
aI8
aI11
aI9
aI9
aI7
aI9
aI22
aI21
aI9
aI10
aI9
aI7
aI6
aI10
aI7
aI13
aI9
aI9
aI10
aa(lp8
I14
aI21
aI27
aI27
aI29
aI6
aI5
aI0
aI9
aI48
aI56
aI12
aI12
aI10
aI9
aI5
aI13
aI12
aI15
aI13
aI23
aI11
aI6
aI30
aI33
aI12
aI14
aI112
aI9
aI8
aI133
aI13
aI4
aI17
aI7
aI22
aI5
aI4
aI14
aI13
aI9
aI9
aI12
aI21
aI22
aI13
aI14
aI5
aI9
aI10
aI13
aI11
aI18
aI5
aI5
aI14
aa(lp9
I14
aI20
aI24
aI24
aI27
aI9
aI9
aI9
aI0
aI48
aI56
aI6
aI9
aI10
aI1
aI9
aI7
aI10
aI7
aI7
aI18
aI14
aI9
aI27
aI36
aI5
aI7
aI107
aI10
aI9
aI134
aI8
aI9
aI10
aI6
aI21
aI9
aI12
aI7
aI5
aI13
aI2
aI4
aI25
aI18
aI5
aI5
aI12
aI2
aI2
aI5
aI3
aI11
aI12
aI12
aI7
aa(lp10
I42
aI36
aI36
aI36
aI38
aI49
aI50
aI45
aI47
aI0
aI67
aI47
aI46
aI53
aI47
aI50
aI47
aI46
aI42
aI42
aI41
aI45
aI47
aI49
aI49
aI45
aI44
aI104
aI53
aI45
aI145
aI49
aI49
aI48
aI49
aI36
aI51
aI49
aI42
aI49
aI45
aI45
aI46
aI40
aI41
aI49
aI48
aI50
aI45
aI48
aI46
aI47
aI47
aI50
aI50
aI48
aa(lp11
I68
aI69
aI76
aI76
aI79
aI60
aI62
aI59
aI58
aI72
aI0
aI61
aI61
aI49
aI58
aI53
aI58
aI64
aI61
aI61
aI50
aI66
aI60
aI43
aI37
aI57
aI60
aI117
aI49
aI64
aI23
aI54
aI57
aI60
aI58
aI74
aI52
aI59
aI60
aI53
aI64
aI58
aI57
aI75
aI59
aI53
aI59
aI53
aI58
aI54
aI59
aI57
aI55
aI53
aI53
aI59
aa(lp12
I13
aI18
aI23
aI23
aI27
aI3
aI6
aI7
aI3
aI48
aI58
aI0
aI4
aI13
aI3
aI7
aI9
aI5
aI10
aI8
aI20
aI9
aI3
aI29
aI37
aI8
aI9
aI110
aI11
aI6
aI135
aI11
aI6
aI12
aI3
aI19
aI8
aI10
aI10
aI10
aI7
aI6
aI7
aI22
aI19
aI10
aI8
aI10
aI6
aI6
aI8
aI7
aI13
aI10
aI10
aI8
aa(lp13
I13
aI18
aI23
aI23
aI27
aI2
aI6
aI7
aI2
aI47
aI58
aI2
aI0
aI13
aI2
aI8
aI7
aI5
aI9
aI8
aI20
aI10
aI3
aI29
aI37
aI6
aI8
aI108
aI12
aI7
aI136
aI8
aI7
aI11
aI5
aI19
aI9
aI10
aI8
aI7
aI8
aI6
aI7
aI23
aI18
aI7
aI7
aI11
aI6
aI5
aI7
aI4
aI12
aI11
aI11
aI8
aa(lp14
I20
aI25
aI31
aI31
aI33
aI8
aI10
aI16
aI8
aI53
aI50
aI12
aI14
aI0
aI8
aI6
aI11
aI15
aI13
aI12
aI20
aI18
aI13
aI21
aI31
aI10
aI12
aI108
aI5
aI15
aI127
aI6
aI8
aI14
aI6
aI27
aI7
aI11
aI13
aI6
aI15
aI9
aI10
aI29
aI21
aI6
aI11
aI9
aI9
aI6
aI11
aI7
aI14
aI9
aI9
aI11
aa(lp15
I16
aI19
aI24
aI24
aI28
aI7
aI7
aI9
aI1
aI48
aI56
aI5
aI9
aI10
aI0
aI6
aI7
aI10
aI7
aI7
aI19
aI14
aI9
aI29
aI35
aI5
aI6
aI107
aI10
aI9
aI134
aI8
aI7
aI10
aI5
aI21
aI9
aI12
aI7
aI5
aI13
aI2
aI4
aI26
aI18
aI5
aI6
aI12
aI2
aI2
aI5
aI3
aI12
aI12
aI12
aI7
aa(lp16
I17
aI22
aI27
aI27
aI30
aI6
aI5
aI9
aI6
aI53
aI54
aI11
aI13
aI7
aI7
aI0
aI13
aI12
aI14
aI13
aI23
aI13
aI7
aI25
aI34
aI11
aI13
aI110
aI8
aI10
aI131
aI10
aI2
aI15
aI6
aI22
aI5
aI8
aI14
aI9
aI12
aI8
aI10
aI25
aI21
aI9
aI11
aI8
aI8
aI7
aI12
aI8
aI15
aI8
aI8
aI11
aa(lp17
I18
aI19
aI23
aI23
aI28
aI11
aI14
aI17
aI8
aI44
aI60
aI10
aI10
aI13
aI9
aI11
aI0
aI12
aI7
aI7
aI15
aI17
aI12
aI26
aI38
aI6
aI5
aI103
aI13
aI14
aI134
aI5
aI13
aI7
aI12
aI20
aI14
aI17
aI7
aI6
aI16
aI8
aI7
aI27
aI15
aI6
aI9
aI17
aI8
aI8
aI9
aI8
aI8
aI17
aI17
aI9
aa(lp18
I13
aI18
aI23
aI23
aI27
aI2
aI6
aI8
aI3
aI49
aI58
aI1
aI2
aI13
aI3
aI7
aI8
aI0
aI9
aI8
aI20
aI10
aI3
aI29
aI37
aI6
aI8
aI109
aI12
aI7
aI135
aI8
aI7
aI11
aI4
aI19
aI9
aI9
aI8
aI7
aI8
aI6
aI7
aI23
aI18
aI7
aI8
aI11
aI6
aI5
aI8
aI4
aI12
aI11
aI11
aI8
aa(lp19
I12
aI12
aI17
aI17
aI21
aI12
aI13
aI11
aI8
aI42
aI59
aI9
aI8
aI14
aI8
aI14
aI8
aI8
aI0
aI2
aI18
aI12
aI11
aI29
aI41
aI6
aI4
aI105
aI15
aI10
aI139
aI11
aI14
aI7
aI11
aI13
aI14
aI14
aI2
aI10
aI12
aI8
aI7
aI21
aI15
aI10
aI9
aI15
aI8
aI9
aI8
aI10
aI10
aI15
aI15
aI9
aa(lp20
I11
aI11
aI16
aI16
aI20
aI11
aI12
aI11
aI8
aI42
aI58
aI8
aI9
aI14
aI8
aI14
aI8
aI9
aI2
aI0
aI18
aI14
aI9
aI30
aI41
aI7
aI5
aI106
aI15
aI10
aI139
aI11
aI14
aI7
aI10
aI12
aI15
aI14
aI2
aI10
aI13
aI7
aI8
aI20
aI15
aI10
aI7
aI15
aI7
aI9
aI7
aI11
aI10
aI15
aI15
aI7
aa(lp21
I25
aI25
aI32
aI32
aI38
aI23
aI23
aI24
aI19
aI39
aI52
aI22
aI24
aI21
aI20
aI22
aI17
aI24
aI19
aI18
aI0
aI23
aI24
aI19
aI36
aI18
aI18
aI95
aI25
aI23
aI132
aI16
aI21
aI17
aI21
aI25
aI24
aI25
aI19
aI18
aI24
aI19
aI19
aI33
aI19
aI18
aI20
aI26
aI19
aI19
aI21
aI21
aI17
aI26
aI26
aI21
aa(lp22
I8
aI14
aI19
aI19
aI22
aI10
aI8
aI6
aI11
aI45
aI63
aI13
aI12
aI15
aI11
aI10
aI16
aI12
aI14
aI13
aI23
aI0
aI10
aI33
aI38
aI14
aI15
aI111
aI15
aI4
aI138
aI17
aI9
aI17
aI9
aI15
aI11
aI9
aI14
aI14
aI2
aI13
aI12
aI15
aI21
aI14
aI13
aI9
aI13
aI12
aI15
aI12
aI20
aI9
aI9
aI14
aa(lp23
I10
aI17
aI22
aI22
aI26
aI2
aI7
aI6
aI8
aI47
aI58
aI6
aI4
aI13
aI8
aI8
aI10
aI4
aI10
aI8
aI22
aI10
aI0
aI31
aI36
aI8
aI10
aI109
aI12
aI4
aI136
aI13
aI7
aI12
aI6
aI17
aI10
aI9
aI10
aI11
aI7
aI8
aI8
aI21
aI18
aI11
aI8
aI10
aI8
aI9
aI10
aI10
aI14
aI10
aI10
aI9
aa(lp24
I37
aI41
aI46
aI46
aI47
aI28
aI28
aI32
aI27
aI48
aI42
aI28
aI28
aI20
aI26
aI25
aI23
aI30
aI30
aI30
aI21
aI34
aI30
aI0
aI34
aI27
aI27
aI101
aI21
aI34
aI123
aI21
aI27
aI24
aI27
aI42
aI24
aI31
aI30
aI23
aI33
aI27
aI27
aI45
aI31
aI23
aI28
aI26
aI27
aI23
aI28
aI24
aI23
aI26
aI26
aI28
aa(lp25
I44
aI43
aI48
aI48
aI42
aI40
aI40
aI39
aI36
aI57
aI22
aI40
aI42
aI29
aI36
aI34
aI40
aI42
aI41
aI40
aI32
aI43
aI40
aI29
aI0
aI39
aI41
aI117
aI28
aI40
aI116
aI32
aI35
aI39
aI36
aI43
aI31
aI36
aI40
aI34
aI41
aI39
aI37
aI39
aI42
aI34
aI41
aI31
aI39
aI35
aI42
aI36
aI35
aI31
aI31
aI42
aa(lp26
I13
aI16
aI21
aI21
aI23
aI10
aI10
aI11
aI5
aI44
aI56
aI6
aI9
aI11
aI5
aI10
aI5
aI9
aI4
aI3
aI17
aI14
aI10
aI26
aI35
aI0
aI2
aI105
aI10
aI11
aI134
aI8
aI10
aI7
aI8
aI17
aI12
aI15
aI4
aI5
aI13
aI4
aI4
aI22
aI16
aI5
aI5
aI16
aI4
aI5
aI4
aI6
aI9
aI16
aI16
aI5
aa(lp27
I15
aI14
aI18
aI18
aI24
aI11
aI13
aI12
aI6
aI43
aI60
aI9
aI10
aI14
aI7
aI12
aI3
aI10
aI3
aI4
aI16
aI16
aI11
aI26
aI38
aI4
aI0
aI104
aI13
aI13
aI137
aI7
aI13
aI6
aI12
aI15
aI14
aI16
aI3
aI7
aI15
aI7
aI6
aI22
aI14
aI7
aI8
aI16
aI7
aI7
aI8
aI8
aI8
aI17
aI17
aI8
aa(lp28
I111
aI108
aI115
aI115
aI118
aI113
aI115
aI114
aI108
aI93
aI114
aI110
aI111
aI108
aI108
aI112
aI107
aI112
aI106
aI106
aI92
aI114
aI113
aI100
aI114
aI106
aI106
aI0
aI108
aI114
aI194
aI105
aI114
aI102
aI110
aI111
aI111
aI115
aI107
aI109
aI114
aI109
aI108
aI119
aI96
aI109
aI110
aI112
aI109
aI109
aI110
aI109
aI103
aI112
aI112
aI110
aa(lp29
I21
aI27
aI32
aI32
aI35
aI12
aI12
aI13
aI11
aI54
aI50
aI14
aI17
aI5
aI10
aI7
aI14
aI16
aI15
aI14
aI20
aI18
aI13
aI21
aI31
aI13
aI14
aI108
aI0
aI14
aI127
aI9
aI8
aI16
aI9
aI28
aI5
aI10
aI16
aI10
aI18
aI10
aI11
aI28
aI24
aI10
aI12
aI8
aI10
aI7
aI13
aI9
aI18
aI8
aI8
aI13
aa(lp30
I11
aI18
aI22
aI22
aI27
aI11
aI9
aI5
aI11
aI45
aI63
aI13
aI12
aI15
aI10
aI10
aI14
aI11
aI12
aI12
aI21
aI4
aI9
aI33
aI38
aI13
aI14
aI111
aI14
aI0
aI139
aI17
aI8
aI16
aI9
aI19
aI11
aI8
aI13
aI14
aI2
aI11
aI11
aI21
aI20
aI14
aI13
aI9
aI11
aI12
aI13
aI12
aI20
aI9
aI9
aI13
aa(lp31
I143
aI143
aI142
aI142
aI144
aI136
aI136
aI136
aI133
aI143
aI104
aI135
aI135
aI124
aI133
aI130
aI135
aI139
aI136
aI136
aI131
aI143
aI136
aI123
aI115
aI134
aI135
aI143
aI123
aI139
aI0
aI130
aI132
aI136
aI134
aI143
aI129
aI135
aI136
aI130
aI144
aI134
aI133
aI143
aI136
aI130
aI135
aI131
aI134
aI131
aI135
aI132
aI134
aI131
aI131
aI135
aa(lp32
I18
aI20
aI26
aI26
aI30
aI9
aI9
aI16
aI8
aI49
aI52
aI9
aI15
aI8
aI8
aI8
aI7
aI14
aI10
aI9
aI16
aI17
aI13
aI20
aI33
aI6
aI8
aI107
aI9
aI13
aI133
aI0
aI8
aI10
aI7
aI21
aI10
aI14
aI9
aI3
aI15
aI9
aI8
aI28
aI17
aI3
aI10
aI14
aI9
aI6
aI10
aI6
aI11
aI14
aI14
aI10
aa(lp33
I15
aI20
aI26
aI26
aI29
aI4
aI4
aI8
aI5
aI52
aI57
aI11
aI10
aI9
aI6
aI4
aI11
aI10
aI13
aI11
aI23
aI11
aI5
aI29
aI34
aI9
aI11
aI111
aI9
aI9
aI133
aI11
aI0
aI14
aI5
aI21
aI6
aI7
aI13
aI10
aI10
aI8
aI10
aI24
aI21
aI10
aI11
aI8
aI8
aI8
aI12
aI8
aI15
aI8
aI8
aI12
aa(lp34
I17
aI19
aI23
aI23
aI28
aI14
aI16
aI16
aI9
aI42
aI60
aI13
aI12
aI17
aI10
aI17
aI7
aI13
aI7
aI9
aI15
aI19
aI13
aI25
aI39
aI9
aI6
aI103
aI17
aI15
aI134
aI10
aI16
aI0
aI14
aI20
aI18
aI18
aI7
aI8
aI17
aI10
aI9
aI27
aI13
aI8
aI11
aI18
aI10
aI11
aI11
aI11
aI9
aI18
aI18
aI11
aa(lp35
I16
aI20
aI25
aI25
aI30
aI6
aI5
aI9
aI5
aI49
aI57
aI8
aI11
aI11
aI4
aI6
aI8
aI12
aI11
aI10
aI20
aI11
aI7
aI29
aI35
aI7
aI9
aI110
aI9
aI8
aI134
aI10
aI4
aI11
aI0
aI21
aI8
aI9
aI10
aI8
aI10
aI8
aI8
aI24
aI19
aI8
aI9
aI10
aI8
aI5
aI10
aI6
aI13
aI10
aI10
aI10
aa(lp36
I9
aI5
aI10
aI10
aI17
aI19
aI19
aI18
aI19
aI36
aI68
aI19
aI19
aI26
aI19
aI21
aI22
aI18
aI15
aI15
aI27
aI15
aI18
aI37
aI44
aI17
aI19
aI107
aI26
aI17
aI144
aI23
aI20
aI22
aI19
aI0
aI23
aI20
aI17
aI20
aI15
aI18
aI19
aI11
aI20
aI20
aI19
aI22
aI18
aI20
aI18
aI21
aI25
aI22
aI22
aI19
aa(lp37
I19
aI22
aI28
aI28
aI34
aI9
aI9
aI11
aI11
aI55
aI53
aI12
aI16
aI8
aI9
aI3
aI14
aI15
aI16
aI14
aI24
aI14
aI10
aI25
aI30
aI13
aI14
aI110
aI7
aI11
aI129
aI11
aI3
aI17
aI7
aI23
aI0
aI8
aI16
aI12
aI13
aI9
aI11
aI26
aI24
aI12
aI12
aI7
aI9
aI8
aI12
aI10
aI18
aI7
aI7
aI12
aa(lp38
I15
aI22
aI27
aI27
aI28
aI11
aI8
aI8
aI15
aI53
aI57
aI16
aI16
aI12
aI15
aI8
aI17
aI16
aI17
aI17
aI26
aI11
aI10
aI30
aI33
aI17
aI17
aI115
aI11
aI9
aI135
aI17
aI8
aI20
aI13
aI23
aI7
aI0
aI18
aI16
aI9
aI16
aI16
aI21
aI27
aI16
aI18
aI5
aI16
aI15
aI18
aI14
aI23
aI5
aI5
aI18
aa(lp39
I13
aI12
aI18
aI18
aI22
aI9
aI14
aI13
aI8
aI42
aI61
aI10
aI9
aI16
aI8
aI13
aI7
aI9
aI1
aI2
aI17
aI14
aI9
aI28
aI40
aI5
aI4
aI104
aI15
aI12
aI137
aI10
aI14
aI6
aI12
aI13
aI16
aI16
aI0
aI9
aI14
aI9
aI8
aI21
aI14
aI9
aI10
aI17
aI9
aI9
aI9
aI10
aI9
aI17
aI17
aI10
aa(lp40
I17
aI20
aI27
aI27
aI29
aI8
aI8
aI14
aI8
aI49
aI52
aI8
aI12
aI8
aI8
aI7
aI8
aI12
aI10
aI9
aI18
aI16
aI10
aI23
aI33
aI7
aI9
aI107
aI7
aI12
aI131
aI3
aI7
aI13
aI6
aI21
aI9
aI12
aI10
aI0
aI13
aI8
aI7
aI27
aI18
aI1
aI8
aI13
aI8
aI4
aI8
aI5
aI12
aI12
aI12
aI8
aa(lp41
I8
aI15
aI19
aI19
aI23
aI11
aI9
aI5
aI11
aI45
aI63
aI12
aI11
aI15
aI11
aI9
aI16
aI11
aI11
aI11
aI22
aI2
aI9
aI33
aI38
aI13
aI14
aI111
aI15
aI1
aI138
aI17
aI8
aI17
aI8
aI15
aI11
aI9
aI12
aI14
aI0
aI10
aI11
aI16
aI20
aI14
aI12
aI9
aI10
aI12
aI12
aI12
aI19
aI9
aI9
aI12
aa(lp42
I10
aI16
aI24
aI24
aI25
aI4
aI7
aI9
aI1
aI47
aI57
aI4
aI8
aI10
aI1
aI7
aI7
aI8
aI7
aI7
aI20
aI10
aI5
aI28
aI36
aI5
aI6
aI108
aI10
aI8
aI135
aI9
aI7
aI10
aI5
aI17
aI10
aI10
aI7
aI7
aI9
aI0
aI4
aI25
aI18
aI7
aI2
aI11
aI1
aI3
aI1
aI4
aI12
aI11
aI11
aI2
aa(lp43
I10
aI16
aI23
aI23
aI25
aI4
aI7
aI9
aI2
aI47
aI56
aI2
aI4
aI10
aI3
aI8
aI5
aI5
aI6
aI6
aI18
aI10
aI5
aI27
aI36
aI5
aI5
aI107
aI10
aI9
aI134
aI9
aI7
aI9
aI5
aI17
aI9
aI11
aI7
aI5
aI9
aI2
aI0
aI23
aI18
aI5
aI2
aI12
aI2
aI2
aI4
aI4
aI10
aI11
aI11
aI4
aa(lp44
I11
aI12
aI17
aI17
aI22
aI18
aI19
aI18
aI20
aI43
aI69
aI19
aI19
aI28
aI19
aI22
aI25
aI19
aI19
aI18
aI32
aI15
aI17
aI43
aI43
aI19
aI21
aI115
aI26
aI14
aI145
aI25
aI20
aI26
aI18
aI11
aI23
aI19
aI20
aI23
aI15
aI19
aI20
aI0
aI25
aI23
aI19
aI22
aI19
aI21
aI18
aI21
aI27
aI22
aI22
aI19
aa(lp45
I19
aI19
aI24
aI24
aI28
aI20
aI21
aI19
aI15
aI37
aI59
aI19
aI18
aI19
aI15
aI20
aI13
aI18
aI13
aI13
aI14
aI20
aI19
aI26
aI41
aI13
aI12
aI97
aI20
aI19
aI137
aI15
aI21
aI8
aI19
aI21
aI22
aI21
aI13
aI15
aI19
aI16
aI15
aI28
aI0
aI15
aI17
aI22
aI16
aI16
aI16
aI16
aI10
aI22
aI22
aI17
aa(lp46
I17
aI20
aI27
aI27
aI29
aI8
aI8
aI14
aI8
aI49
aI52
aI8
aI12
aI8
aI8
aI7
aI8
aI12
aI10
aI9
aI18
aI16
aI10
aI23
aI33
aI7
aI9
aI107
aI7
aI12
aI131
aI3
aI7
aI13
aI6
aI21
aI9
aI12
aI10
aI1
aI13
aI8
aI7
aI27
aI18
aI0
aI8
aI13
aI8
aI4
aI8
aI5
aI12
aI12
aI12
aI8
aa(lp47
I10
aI17
aI22
aI22
aI25
aI5
aI7
aI9
aI2
aI46
aI58
aI4
aI6
aI11
aI1
aI7
aI7
aI7
aI7
aI6
aI20
aI11
aI5
aI29
aI38
aI5
aI7
aI108
aI10
aI7
aI136
aI9
aI6
aI11
aI6
aI17
aI9
aI11
aI8
aI7
aI9
aI1
aI5
aI23
aI18
aI7
aI0
aI12
aI1
aI4
aI1
aI5
aI13
aI12
aI12
aI1
aa(lp48
I22
aI27
aI29
aI29
aI33
aI11
aI11
aI13
aI13
aI57
aI54
aI16
aI16
aI11
aI13
aI8
aI17
aI16
aI18
aI17
aI26
aI15
aI12
aI26
aI30
aI16
aI17
aI112
aI9
aI13
aI131
aI13
aI7
aI21
aI11
aI28
aI8
aI7
aI19
aI13
aI14
aI14
aI14
aI25
aI27
aI13
aI15
aI0
aI14
aI11
aI16
aI12
aI23
aI2
aI2
aI15
aa(lp49
I10
aI16
aI24
aI24
aI25
aI4
aI7
aI9
aI1
aI47
aI57
aI4
aI8
aI10
aI1
aI7
aI7
aI8
aI7
aI7
aI20
aI10
aI5
aI28
aI36
aI5
aI6
aI108
aI10
aI8
aI135
aI9
aI7
aI10
aI5
aI17
aI10
aI10
aI7
aI7
aI9
aI1
aI4
aI25
aI18
aI7
aI2
aI11
aI0
aI3
aI1
aI4
aI12
aI11
aI11
aI2
aa(lp50
I15
aI19
aI24
aI24
aI27
aI8
aI8
aI13
aI3
aI48
aI53
aI6
aI10
aI7
aI3
aI6
aI7
aI10
aI8
aI7
aI19
aI15
aI9
aI24
aI34
aI6
aI8
aI108
aI7
aI10
aI131
aI7
aI7
aI11
aI5
aI20
aI9
aI12
aI8
aI4
aI12
aI5
aI2
aI26
aI18
aI4
aI5
aI12
aI5
aI0
aI6
aI3
aI11
aI12
aI12
aI6
aa(lp51
I10
aI16
aI23
aI23
aI25
aI5
aI9
aI10
aI4
aI46
aI58
aI6
aI9
aI13
aI4
aI8
aI7
aI8
aI7
aI6
aI20
aI11
aI6
aI30
aI38
aI5
aI7
aI108
aI13
aI9
aI136
aI10
aI8
aI11
aI8
aI17
aI11
aI12
aI8
aI8
aI10
aI4
aI4
aI23
aI18
aI8
aI1
aI13
aI4
aI6
aI0
aI6
aI13
aI13
aI13
aI1
aa(lp52
I14
aI18
aI24
aI24
aI28
aI9
aI9
aI12
aI2
aI47
aI55
aI6
aI9
aI10
aI3
aI10
aI6
aI10
aI7
aI6
aI18
aI15
aI8
aI26
aI35
aI5
aI6
aI107
aI10
aI11
aI133
aI9
aI9
aI10
aI7
aI19
aI11
aI12
aI7
aI5
aI13
aI2
aI3
aI25
aI18
aI5
aI5
aI13
aI2
aI4
aI5
aI0
aI11
aI13
aI13
aI5
aa(lp53
I18
aI20
aI27
aI27
aI30
aI16
aI18
aI17
aI13
aI44
aI56
aI12
aI15
aI16
aI13
aI18
aI10
aI15
aI11
aI13
aI14
aI18
aI16
aI25
aI34
aI13
aI10
aI103
aI18
aI16
aI135
aI8
aI18
aI9
aI14
aI22
aI19
aI18
aI11
aI11
aI16
aI13
aI13
aI29
aI13
aI11
aI13
aI18
aI13
aI13
aI13
aI13
aI0
aI18
aI18
aI13
aa(lp54
I22
aI27
aI29
aI29
aI33
aI11
aI11
aI13
aI13
aI57
aI54
aI16
aI16
aI10
aI13
aI8
aI18
aI17
aI18
aI17
aI26
aI15
aI12
aI26
aI30
aI16
aI18
aI112
aI9
aI13
aI131
aI14
aI7
aI21
aI11
aI28
aI7
aI8
aI19
aI13
aI14
aI13
aI14
aI25
aI28
aI13
aI17
aI2
aI13
aI12
aI17
aI12
aI22
aI0
aI2
aI17
aa(lp55
I22
aI27
aI29
aI29
aI33
aI11
aI11
aI13
aI13
aI57
aI54
aI16
aI16
aI10
aI13
aI8
aI18
aI17
aI18
aI17
aI26
aI15
aI12
aI26
aI30
aI16
aI18
aI112
aI9
aI13
aI131
aI14
aI7
aI21
aI11
aI28
aI7
aI8
aI19
aI13
aI14
aI13
aI14
aI25
aI28
aI13
aI17
aI2
aI13
aI12
aI17
aI12
aI22
aI2
aI0
aI17
aa(lp56
I10
aI16
aI22
aI22
aI25
aI5
aI7
aI9
aI2
aI46
aI58
aI2
aI6
aI12
aI2
aI7
aI7
aI6
aI7
aI6
aI20
aI12
aI6
aI29
aI38
aI5
aI7
aI108
aI12
aI8
aI136
aI9
aI7
aI11
aI6
aI17
aI10
aI11
aI8
aI7
aI9
aI1
aI4
aI23
aI18
aI7
aI1
aI12
aI1
aI4
aI1
aI4
aI13
aI12
aI12
aI0
aa.