(lp0
(lp1
I0
aI13
aI25
aI13
aI17
aI17
aI21
aI17
aI14
aI13
aI16
aI17
aI13
aI21
aI21
aI53
aI33
aI17
aI19
aI17
aI17
aI20
aI30
aI11
aI42
aI20
aI19
aI25
aI18
aI22
aI116
aI69
aI145
aI24
aI16
aI25
aI18
aI14
aI13
aI18
aI12
aI22
aI11
aI18
aI21
aI17
aI18
aI17
aI10
aI25
aI25
aI21
aI18
aI19
aI31
aI21
aI14
aI16
aI22
aI35
aI23
aI21
aI21
aI18
aI22
aI22
aI18
aI11
aI20
aI20
aI16
aI14
aa(lp2
I16
aI0
aI25
aI8
aI10
aI10
aI17
aI20
aI20
aI18
aI18
aI14
aI18
aI18
aI14
aI58
aI29
aI21
aI19
aI14
aI14
aI25
aI27
aI14
aI44
aI25
aI16
aI22
aI17
aI18
aI104
aI68
aI144
aI23
aI21
aI22
aI20
aI12
aI19
aI15
aI16
aI20
aI13
aI16
aI20
aI12
aI19
aI12
aI10
aI16
aI23
aI18
aI16
aI19
aI26
aI18
aI21
aI20
aI20
aI38
aI18
aI16
aI19
aI15
aI20
aI20
aI15
aI9
aI19
aI18
aI23
aI21
aa(lp3
I24
aI25
aI0
aI22
aI31
aI31
aI33
aI11
aI11
aI19
aI14
aI14
aI15
aI9
aI33
aI73
aI46
aI7
aI14
aI13
aI12
aI11
aI17
aI19
aI31
aI11
aI10
aI12
aI14
aI12
aI107
aI50
aI126
aI6
aI9
aI14
aI8
aI26
aI13
aI14
aI16
aI7
aI16
aI11
aI11
aI18
aI11
aI18
aI22
aI19
aI10
aI11
aI11
aI9
aI25
aI11
aI13
aI12
aI7
aI16
aI13
aI18
aI11
aI11
aI12
aI12
aI11
aI25
aI11
aI10
aI9
aI13
aa(lp4
I11
aI10
aI20
aI0
aI12
aI12
aI19
aI16
aI16
aI11
aI12
aI9
aI12
aI14
aI16
aI58
aI33
aI18
aI14
aI9
aI10
aI22
aI24
aI9
aI43
aI22
aI12
aI17
aI12
aI14
aI108
aI67
aI145
aI18
aI16
aI18
aI16
aI12
aI16
aI10
aI11
aI16
aI8
aI10
aI15
aI10
aI14
aI10
aI8
aI21
aI18
aI15
aI10
aI16
aI25
aI15
aI17
aI17
aI16
aI35
aI15
aI13
aI14
aI11
aI16
aI16
aI11
aI10
aI14
aI14
aI19
aI17
aa(lp5
I16
aI12
aI31
aI15
aI0
aI7
aI17
aI22
aI24
aI22
aI21
aI19
aI22
aI24
aI8
aI57
aI34
aI27
aI23
aI20
aI20
aI33
aI35
aI20
aI43
aI33
aI23
aI27
aI22
aI22
aI111
aI69
aI144
aI29
aI26
aI29
aI25
aI12
aI22
aI21
aI20
aI26
aI19
aI21
aI25
aI19
aI22
aI19
aI17
aI29
aI28
aI25
aI21
aI25
aI34
aI25
aI25
aI27
aI26
aI43
aI25
aI23
aI22
aI21
aI27
aI27
aI21
aI12
aI23
aI24
aI27
aI25
aa(lp6
I16
aI12
aI31
aI15
aI7
aI0
aI17
aI22
aI24
aI22
aI21
aI19
aI22
aI24
aI8
aI57
aI34
aI27
aI23
aI20
aI20
aI33
aI35
aI20
aI43
aI33
aI23
aI27
aI22
aI22
aI111
aI69
aI144
aI29
aI26
aI29
aI25
aI12
aI22
aI21
aI20
aI26
aI19
aI21
aI25
aI19
aI22
aI19
aI17
aI29
aI28
aI25
aI21
aI25
aI34
aI25
aI25
aI27
aI26
aI43
aI25
aI23
aI22
aI21
aI27
aI27
aI21
aI12
aI23
aI24
aI27
aI25
aa(lp7
I12
aI11
aI22
aI10
aI12
aI12
aI0
aI20
aI21
aI20
aI18
aI15
aI21
aI16
aI12
aI53
aI30
aI22
aI16
aI13
aI14
aI26
aI28
aI17
aI43
aI26
aI15
aI18
aI16
aI15
aI115
aI71
aI145
aI21
aI22
aI20
aI17
aI12
aI21
aI13
aI19
aI19
aI17
aI13
aI17
aI13
aI15
aI13
aI13
aI24
aI20
aI17
aI13
aI17
aI28
aI17
aI22
aI23
aI19
aI40
aI17
aI15
aI16
aI13
aI17
aI17
aI13
aI10
aI16
aI17
aI25
aI22
aa(lp8
I15
aI17
aI13
aI14
aI22
aI22
aI27
aI0
aI4
aI7
aI2
aI5
aI7
aI8
aI27
aI66
aI39
aI7
aI5
aI10
aI9
aI16
aI21
aI9
aI35
aI16
aI8
aI10
aI5
aI9
aI109
aI58
aI135
aI10
aI6
aI11
aI6
aI18
aI8
aI10
aI6
aI9
aI7
aI8
aI8
aI11
aI10
aI11
aI12
aI19
aI11
aI8
aI8
aI7
aI25
aI8
aI7
aI10
aI9
aI24
aI11
aI11
aI10
aI8
aI10
aI10
aI8
aI18
aI9
aI8
aI8
aI7
aa(lp9
I15
aI20
aI9
aI16
aI26
aI26
aI28
aI4
aI0
aI7
aI4
aI8
aI8
aI8
aI28
aI67
aI39
aI7
aI8
aI11
aI10
aI14
aI22
aI10
aI34
aI14
aI9
aI10
aI9
aI9
aI109
aI57
aI134
aI10
aI5
aI12
aI3
aI21
aI8
aI11
aI8
aI9
aI9
aI9
aI8
aI11
aI10
aI11
aI15
aI21
aI11
aI9
aI9
aI5
aI25
aI9
aI6
aI9
aI9
aI24
aI11
aI13
aI10
aI9
aI10
aI10
aI9
aI21
aI9
aI8
aI6
aI6
aa(lp10
I14
aI21
aI11
aI17
aI27
aI27
aI29
aI6
aI5
aI0
aI6
aI8
aI6
aI11
aI29
aI68
aI40
aI5
aI12
aI15
aI13
aI11
aI23
aI11
aI33
aI11
aI12
aI15
aI11
aI14
aI112
aI56
aI133
aI13
aI4
aI17
aI7
aI22
aI4
aI14
aI8
aI13
aI9
aI13
aI13
aI13
aI13
aI13
aI15
aI22
aI17
aI13
aI13
aI10
aI25
aI13
aI4
aI5
aI13
aI23
aI16
aI16
aI14
aI13
aI14
aI14
aI13
aI21
aI13
aI12
aI5
aI4
aa(lp11
I15
aI17
aI15
aI12
aI22
aI22
aI26
aI2
aI7
aI6
aI0
aI4
aI7
aI9
aI26
aI67
aI38
aI8
aI4
aI10
aI8
aI16
aI22
aI10
aI36
aI16
aI8
aI11
aI4
aI10
aI109
aI58
aI136
aI13
aI7
aI12
aI6
aI17
aI9
aI10
aI6
aI11
aI7
aI8
aI10
aI10
aI10
aI10
aI11
aI18
aI14
aI9
aI8
aI8
aI26
aI9
aI8
aI10
aI11
aI26
aI12
aI12
aI8
aI7
aI12
aI12
aI7
aI17
aI7
aI8
aI10
aI8
aa(lp12
I13
aI16
aI14
aI10
aI19
aI19
aI23
aI2
aI7
aI5
aI3
aI0
aI6
aI8
aI23
aI67
aI36
aI7
aI4
aI8
aI6
aI16
aI19
aI7
aI38
aI16
aI7
aI10
aI4
aI8
aI111
aI58
aI138
aI11
aI7
aI12
aI5
aI16
aI8
aI7
aI6
aI10
aI7
aI6
aI9
aI6
aI6
aI6
aI10
aI16
aI12
aI8
aI6
aI7
aI25
aI8
aI6
aI9
aI10
aI27
aI10
aI9
aI6
aI6
aI10
aI10
aI6
aI17
aI7
aI8
aI8
aI6
aa(lp13
I16
aI21
aI12
aI18
aI27
aI27
aI28
aI4
aI5
aI8
aI5
aI9
aI0
aI9
aI28
aI67
aI38
aI6
aI11
aI12
aI12
aI12
aI23
aI12
aI35
aI12
aI9
aI11
aI9
aI11
aI109
aI57
aI134
aI10
aI5
aI13
aI5
aI22
aI6
aI13
aI9
aI10
aI12
aI11
aI10
aI13
aI11
aI13
aI16
aI21
aI14
aI9
aI10
aI6
aI26
aI9
aI6
aI7
aI10
aI25
aI12
aI15
aI12
aI10
aI11
aI11
aI10
aI22
aI11
aI10
aI6
aI6
aa(lp14
I22
aI16
aI8
aI17
aI22
aI22
aI25
aI10
aI10
aI13
aI10
aI11
aI13
aI0
aI25
aI68
aI41
aI10
aI11
aI5
aI5
aI14
aI16
aI16
aI35
aI14
aI1
aI6
aI11
aI4
aI105
aI55
aI133
aI4
aI10
aI8
aI9
aI17
aI14
aI5
aI14
aI3
aI14
aI3
aI5
aI14
aI7
aI14
aI15
aI16
aI5
aI5
aI2
aI7
aI22
aI5
aI14
aI15
aI3
aI22
aI6
aI11
aI7
aI2
aI6
aI6
aI2
aI18
aI7
aI4
aI12
aI14
aa(lp15
I16
aI13
aI33
aI16
aI9
aI9
aI13
aI26
aI26
aI24
aI24
aI21
aI25
aI26
aI0
aI53
aI30
aI28
aI25
aI21
aI22
aI34
aI37
aI21
aI38
aI34
aI24
aI28
aI24
aI24
aI114
aI72
aI144
aI30
aI27
aI31
aI26
aI14
aI26
aI22
aI22
aI28
aI21
aI23
aI27
aI20
aI23
aI20
aI16
aI32
aI30
aI27
aI23
aI27
aI34
aI27
aI27
aI28
aI28
aI44
aI26
aI23
aI26
aI23
aI28
aI28
aI23
aI13
aI25
aI26
aI29
aI28
aa(lp16
I59
aI60
aI72
aI58
aI59
aI59
aI61
aI66
aI69
aI68
aI67
aI62
aI68
aI69
aI58
aI0
aI60
aI70
aI65
aI62
aI61
aI74
aI78
aI65
aI89
aI74
aI64
aI68
aI65
aI65
aI104
aI101
aI157
aI70
aI69
aI70
aI67
aI59
aI68
aI63
aI67
aI70
aI65
aI65
aI69
aI63
aI65
aI63
aI59
aI67
aI69
aI66
aI64
aI66
aI83
aI66
aI68
aI69
aI70
aI84
aI66
aI65
aI65
aI65
aI64
aI64
aI65
aI59
aI65
aI65
aI70
aI68
aa(lp17
I33
aI33
aI45
aI36
aI31
aI31
aI27
aI41
aI41
aI38
aI39
aI36
aI38
aI39
aI41
aI49
aI0
aI42
aI41
aI36
aI36
aI47
aI46
aI38
aI36
aI47
aI37
aI40
aI39
aI37
aI107
aI47
aI140
aI43
aI41
aI40
aI41
aI33
aI41
aI36
aI40
aI41
aI38
aI36
aI40
aI36
aI38
aI36
aI37
aI42
aI42
aI39
aI36
aI40
aI43
aI39
aI42
aI44
aI41
aI49
aI39
aI38
aI40
aI36
aI39
aI39
aI36
aI33
aI40
aI38
aI43
aI42
aa(lp18
I19
aI22
aI8
aI18
aI27
aI27
aI30
aI6
aI5
aI9
aI7
aI12
aI8
aI10
aI31
aI71
aI43
aI0
aI12
aI14
aI13
aI11
aI23
aI13
aI34
aI11
aI11
aI13
aI12
aI13
aI110
aI54
aI131
aI10
aI2
aI15
aI6
aI22
aI8
aI14
aI11
aI9
aI12
aI12
aI10
aI18
aI12
aI18
aI17
aI21
aI13
aI11
aI12
aI6
aI29
aI11
aI7
aI9
aI9
aI20
aI14
aI16
aI11
aI12
aI14
aI14
aI12
aI22
aI11
aI11
aI6
aI8
aa(lp19
I16
aI18
aI11
aI14
aI23
aI23
aI27
aI2
aI6
aI8
aI3
aI5
aI7
aI6
aI27
aI67
aI39
aI7
aI0
aI9
aI8
aI16
aI20
aI10
aI37
aI16
aI6
aI9
aI3
aI8
aI109
aI58
aI135
aI8
aI7
aI11
aI4
aI19
aI9
aI8
aI7
aI7
aI8
aI8
aI7
aI13
aI7
aI13
aI13
aI18
aI11
aI6
aI7
aI3
aI24
aI6
aI9
aI11
aI7
aI25
aI11
aI12
aI8
aI8
aI9
aI9
aI8
aI19
aI6
aI6
aI10
aI8
aa(lp20
I21
aI12
aI12
aI12
aI17
aI17
aI21
aI12
aI13
aI11
aI11
aI9
aI12
aI9
aI21
aI62
aI36
aI14
aI8
aI0
aI2
aI19
aI18
aI12
aI41
aI19
aI6
aI8
aI8
aI4
aI105
aI59
aI139
aI11
aI14
aI7
aI11
aI13
aI14
aI2
aI14
aI10
aI12
aI4
aI9
aI9
aI7
aI9
aI12
aI15
aI12
aI9
aI5
aI9
aI21
aI9
aI14
aI17
aI10
aI28
aI7
aI6
aI9
aI5
aI8
aI8
aI5
aI13
aI8
aI9
aI17
aI15
aa(lp21
I21
aI11
aI12
aI12
aI16
aI16
aI20
aI11
aI12
aI11
aI9
aI8
aI13
aI9
aI20
aI61
aI36
aI14
aI9
aI2
aI0
aI19
aI18
aI14
aI41
aI19
aI7
aI8
aI8
aI5
aI106
aI58
aI139
aI11
aI14
aI7
aI10
aI12
aI14
aI2
aI14
aI10
aI13
aI5
aI9
aI12
aI6
aI12
aI12
aI15
aI12
aI9
aI7
aI10
aI23
aI9
aI14
aI15
aI10
aI27
aI7
aI6
aI7
aI6
aI8
aI8
aI6
aI12
aI8
aI9
aI17
aI14
aa(lp22
I21
aI31
aI12
aI23
aI36
aI36
aI37
aI14
aI12
aI14
aI13
aI18
aI13
aI15
aI38
aI79
aI49
aI11
aI18
aI18
aI17
aI0
aI25
aI18
aI21
aI4
aI15
aI18
aI18
aI18
aI108
aI49
aI127
aI14
aI11
aI21
aI14
aI32
aI11
aI19
aI12
aI13
aI15
aI17
aI15
aI23
aI16
aI23
aI23
aI26
aI17
aI15
aI16
aI14
aI29
aI15
aI10
aI8
aI13
aI13
aI19
aI23
aI16
aI16
aI18
aI18
aI16
aI31
aI17
aI16
aI8
aI10
aa(lp23
I30
aI25
aI20
aI25
aI32
aI32
aI38
aI23
aI23
aI24
aI24
aI20
aI24
aI20
aI37
aI76
aI45
aI22
aI24
aI19
aI18
aI27
aI0
aI23
aI36
aI27
aI18
aI18
aI24
aI18
aI95
aI52
aI132
aI16
aI21
aI17
aI21
aI25
aI25
aI19
aI24
aI18
aI24
aI18
aI20
aI21
aI21
aI21
aI25
aI19
aI17
aI21
aI19
aI21
aI9
aI21
aI24
aI25
aI18
aI22
aI15
aI21
aI20
aI19
aI17
aI17
aI19
aI25
aI20
aI17
aI24
aI24
aa(lp24
I10
aI14
aI16
aI10
aI19
aI19
aI22
aI10
aI8
aI6
aI10
aI10
aI5
aI13
aI23
aI65
aI37
aI10
aI12
aI14
aI13
aI15
aI23
aI0
aI38
aI15
aI14
aI15
aI10
aI15
aI111
aI63
aI138
aI17
aI9
aI17
aI9
aI15
aI9
aI14
aI7
aI14
aI2
aI12
aI13
aI6
aI14
aI6
aI7
aI21
aI16
aI13
aI12
aI11
aI28
aI13
aI8
aI9
aI14
aI27
aI17
aI16
aI13
aI13
aI15
aI15
aI13
aI15
aI12
aI13
aI11
aI8
aa(lp25
I40
aI43
aI30
aI44
aI48
aI48
aI42
aI40
aI40
aI39
aI40
aI40
aI39
aI39
aI58
aI57
aI59
aI34
aI42
aI41
aI40
aI23
aI32
aI43
aI0
aI23
aI39
aI39
aI41
aI41
aI117
aI22
aI116
aI32
aI35
aI39
aI36
aI43
aI36
aI40
aI40
aI34
aI41
aI39
aI38
aI45
aI41
aI45
aI47
aI42
aI36
aI38
aI40
aI37
aI28
aI38
aI34
aI32
aI34
aI25
aI41
aI41
aI41
aI39
aI39
aI39
aI39
aI43
aI41
aI39
aI30
aI34
aa(lp26
I21
aI31
aI12
aI23
aI36
aI36
aI37
aI14
aI12
aI14
aI13
aI18
aI13
aI15
aI38
aI79
aI49
aI11
aI18
aI18
aI17
aI4
aI25
aI18
aI21
aI0
aI15
aI18
aI18
aI18
aI108
aI49
aI127
aI14
aI11
aI21
aI14
aI32
aI11
aI19
aI12
aI13
aI15
aI17
aI15
aI23
aI16
aI23
aI23
aI26
aI17
aI15
aI16
aI14
aI29
aI15
aI10
aI8
aI13
aI13
aI19
aI23
aI16
aI16
aI18
aI18
aI16
aI31
aI17
aI16
aI8
aI10
aa(lp27
I20
aI16
aI9
aI15
aI21
aI21
aI23
aI10
aI10
aI11
aI10
aI9
aI12
aI3
aI23
aI69
aI36
aI10
aI9
aI4
aI3
aI15
aI17
aI14
aI35
aI15
aI0
aI7
aI9
aI2
aI105
aI56
aI134
aI8
aI10
aI7
aI8
aI17
aI15
aI4
aI14
aI5
aI13
aI2
aI5
aI14
aI4
aI14
aI13
aI16
aI7
aI5
aI1
aI6
aI23
aI5
aI14
aI15
aI5
aI24
aI6
aI9
aI5
aI2
aI6
aI6
aI2
aI17
aI6
aI4
aI13
aI14
aa(lp28
I24
aI19
aI10
aI19
aI23
aI23
aI28
aI11
aI13
aI16
aI12
aI13
aI15
aI5
aI28
aI68
aI41
aI11
aI12
aI7
aI6
aI18
aI15
aI17
aI37
aI18
aI6
aI0
aI12
aI4
aI103
aI60
aI134
aI6
aI13
aI8
aI11
aI18
aI16
aI6
aI15
aI5
aI15
aI6
aI8
aI14
aI9
aI14
aI16
aI15
aI5
aI7
aI5
aI8
aI19
aI7
aI16
aI16
aI5
aI24
aI7
aI11
aI9
aI5
aI6
aI6
aI5
aI19
aI9
aI7
aI14
aI16
aa(lp29
I16
aI17
aI13
aI12
aI23
aI23
aI26
aI3
aI7
aI7
aI4
aI5
aI7
aI8
aI26
aI67
aI38
aI8
aI4
aI9
aI7
aI16
aI21
aI9
aI37
aI16
aI8
aI10
aI0
aI9
aI111
aI58
aI136
aI11
aI7
aI12
aI4
aI18
aI10
aI9
aI7
aI10
aI7
aI7
aI8
aI10
aI8
aI10
aI12
aI19
aI12
aI7
aI7
aI6
aI25
aI7
aI8
aI10
aI10
aI26
aI12
aI12
aI7
aI7
aI10
aI10
aI7
aI17
aI7
aI8
aI10
aI8
aa(lp30
I22
aI14
aI12
aI15
aI18
aI18
aI24
aI11
aI13
aI12
aI11
aI9
aI14
aI5
aI24
aI63
aI36
aI12
aI10
aI3
aI4
aI18
aI16
aI16
aI38
aI18
aI4
aI3
aI10
aI0
aI104
aI60
aI137
aI7
aI13
aI6
aI12
aI15
aI16
aI3
aI14
aI7
aI15
aI2
aI7
aI15
aI6
aI15
aI15
aI14
aI8
aI7
aI3
aI8
aI20
aI7
aI16
aI17
aI7
aI25
aI5
aI8
aI8
aI3
aI4
aI4
aI3
aI15
aI8
aI4
aI14
aI16
aa(lp31
I119
aI108
aI108
aI108
aI115
aI115
aI118
aI113
aI115
aI114
aI113
aI109
aI114
aI107
aI118
aI113
aI113
aI112
aI112
aI106
aI106
aI114
aI92
aI114
aI114
aI114
aI106
aI106
aI111
aI106
aI0
aI114
aI194
aI105
aI114
aI102
aI110
aI111
aI115
aI107
aI113
aI109
aI114
aI107
aI106
aI109
aI110
aI109
aI113
aI96
aI106
aI107
aI107
aI108
aI90
aI107
aI113
aI111
aI109
aI108
aI105
aI103
aI110
aI107
aI106
aI106
aI107
aI111
aI110
aI106
aI111
aI113
aa(lp32
I73
aI69
aI49
aI69
aI76
aI76
aI79
aI60
aI62
aI59
aI60
aI62
aI60
aI56
aI81
aI94
aI76
aI53
aI64
aI61
aI61
aI48
aI50
aI66
aI37
aI48
aI57
aI57
aI61
aI60
aI117
aI0
aI23
aI54
aI57
aI60
aI58
aI74
aI59
aI60
aI62
aI53
aI64
aI59
aI57
aI67
aI59
aI67
aI68
aI59
aI56
aI59
aI59
aI58
aI48
aI59
aI56
aI52
aI53
aI43
aI60
aI64
aI59
aI59
aI59
aI59
aI59
aI74
aI61
aI58
aI52
aI56
aa(lp33
I143
aI143
aI124
aI143
aI142
aI142
aI144
aI136
aI136
aI136
aI136
aI138
aI136
aI133
aI142
aI160
aI144
aI130
aI139
aI136
aI136
aI123
aI131
aI143
aI115
aI123
aI134
aI135
aI139
aI135
aI143
aI104
aI0
aI130
aI132
aI136
aI134
aI143
aI135
aI136
aI137
aI130
aI144
aI136
aI134
aI143
aI135
aI143
aI144
aI136
aI133
aI134
aI135
aI134
aI131
aI134
aI132
aI130
aI130
aI122
aI135
aI138
aI135
aI135
aI135
aI135
aI135
aI143
aI135
aI134
aI129
aI132
aa(lp34
I23
aI20
aI6
aI20
aI26
aI26
aI30
aI9
aI9
aI16
aI13
aI13
aI16
aI6
aI29
aI70
aI40
aI8
aI14
aI10
aI9
aI13
aI16
aI17
aI33
aI13
aI6
aI7
aI13
aI8
aI107
aI52
aI133
aI0
aI8
aI10
aI7
aI21
aI14
aI9
aI14
aI3
aI15
aI8
aI10
aI16
aI9
aI16
aI18
aI17
aI5
aI9
aI6
aI8
aI22
aI9
aI12
aI15
aI3
aI19
aI9
aI15
aI10
aI6
aI8
aI8
aI6
aI21
aI9
aI8
aI11
aI13
aa(lp35
I16
aI20
aI10
aI16
aI26
aI26
aI29
aI4
aI4
aI8
aI5
aI9
aI7
aI9
aI29
aI70
aI40
aI4
aI10
aI13
aI11
aI12
aI23
aI11
aI34
aI12
aI9
aI11
aI9
aI11
aI111
aI57
aI133
aI11
aI0
aI14
aI5
aI21
aI7
aI13
aI8
aI10
aI10
aI11
aI10
aI12
aI12
aI12
aI14
aI21
aI12
aI9
aI10
aI6
aI25
aI9
aI7
aI8
aI10
aI23
aI12
aI14
aI11
aI10
aI12
aI12
aI10
aI20
aI10
aI8
aI7
aI8
aa(lp36
I26
aI19
aI12
aI19
aI23
aI23
aI28
aI14
aI16
aI16
aI13
aI14
aI15
aI10
aI28
aI69
aI40
aI17
aI13
aI7
aI9
aI19
aI15
aI19
aI39
aI19
aI9
aI7
aI14
aI6
aI103
aI60
aI134
aI10
aI16
aI0
aI14
aI20
aI18
aI7
aI17
aI8
aI17
aI9
aI13
aI16
aI12
aI16
aI17
aI13
aI10
aI13
aI9
aI11
aI17
aI13
aI18
aI18
aI8
aI26
aI4
aI8
aI11
aI9
aI8
aI8
aI9
aI20
aI9
aI11
aI19
aI18
aa(lp37
I17
aI20
aI10
aI17
aI25
aI25
aI30
aI6
aI5
aI9
aI7
aI9
aI8
aI6
aI30
aI70
aI40
aI6
aI12
aI11
aI10
aI13
aI20
aI11
aI35
aI13
aI7
aI9
aI10
aI9
aI110
aI57
aI134
aI10
aI4
aI11
aI0
aI21
aI9
aI10
aI9
aI8
aI10
aI8
aI7
aI12
aI10
aI12
aI16
aI19
aI12
aI7
aI8
aI5
aI24
aI7
aI8
aI9
aI8
aI24
aI11
aI15
aI9
aI8
aI10
aI10
aI8
aI20
aI9
aI7
aI8
aI8
aa(lp38
I15
aI5
aI26
aI8
aI10
aI10
aI17
aI19
aI19
aI18
aI18
aI15
aI18
aI19
aI15
aI57
aI29
aI21
aI18
aI15
aI15
aI28
aI27
aI15
aI44
aI28
aI17
aI22
aI17
aI19
aI107
aI68
aI144
aI23
aI20
aI22
aI19
aI0
aI20
aI17
aI17
aI20
aI15
aI16
aI20
aI12
aI18
aI12
aI11
aI20
aI23
aI19
aI16
aI19
aI27
aI19
aI21
aI23
aI20
aI39
aI19
aI19
aI19
aI16
aI20
aI20
aI16
aI4
aI19
aI19
aI23
aI21
aa(lp39
I13
aI22
aI15
aI17
aI27
aI27
aI28
aI11
aI8
aI8
aI10
aI13
aI8
aI16
aI28
aI68
aI40
aI8
aI16
aI17
aI17
aI12
aI26
aI11
aI33
aI12
aI17
aI18
aI14
aI17
aI115
aI57
aI135
aI17
aI8
aI20
aI13
aI23
aI0
aI18
aI5
aI16
aI9
aI17
aI15
aI13
aI18
aI13
aI16
aI27
aI19
aI15
aI17
aI14
aI30
aI15
aI5
aI3
aI16
aI24
aI20
aI19
aI18
aI17
aI18
aI18
aI17
aI23
aI18
aI17
aI4
aI5
aa(lp40
I21
aI12
aI12
aI14
aI18
aI18
aI22
aI9
aI14
aI13
aI9
aI9
aI14
aI8
aI23
aI61
aI35
aI13
aI9
aI1
aI2
aI18
aI17
aI14
aI40
aI18
aI5
aI7
aI9
aI4
aI104
aI61
aI137
aI10
aI14
aI6
aI12
aI13
aI16
aI0
aI14
aI9
aI14
aI4
aI9
aI11
aI7
aI11
aI14
aI14
aI11
aI9
aI5
aI9
aI22
aI9
aI15
aI17
aI9
aI29
aI6
aI6
aI10
aI4
aI7
aI7
aI4
aI13
aI9
aI8
aI15
aI14
aa(lp41
I11
aI19
aI17
aI16
aI22
aI22
aI25
aI10
aI8
aI6
aI9
aI10
aI6
aI14
aI25
aI68
aI40
aI10
aI14
aI15
aI15
aI14
aI25
aI6
aI37
aI14
aI14
aI17
aI14
aI16
aI115
aI58
aI138
aI17
aI8
aI19
aI10
aI20
aI6
aI15
aI0
aI15
aI5
aI14
aI14
aI11
aI16
aI11
aI14
aI24
aI17
aI15
aI14
aI11
aI29
aI15
aI8
aI9
aI15
aI27
aI18
aI18
aI14
aI14
aI15
aI15
aI14
aI20
aI15
aI13
aI10
aI8
aa(lp42
I21
aI20
aI5
aI19
aI27
aI27
aI29
aI8
aI8
aI14
aI10
aI11
aI13
aI5
aI29
aI70
aI41
aI7
aI12
aI10
aI9
aI11
aI18
aI16
aI33
aI11
aI7
aI9
aI11
aI9
aI107
aI52
aI131
aI3
aI7
aI13
aI6
aI21
aI12
aI10
aI12
aI0
aI13
aI8
aI7
aI16
aI8
aI16
aI17
aI18
aI4
aI7
aI7
aI8
aI26
aI7
aI11
aI12
aI1
aI19
aI11
aI15
aI8
aI7
aI9
aI9
aI7
aI21
aI7
aI8
aI10
aI11
aa(lp43
I10
aI15
aI16
aI9
aI19
aI19
aI23
aI11
aI9
aI5
aI9
aI7
aI4
aI12
aI24
aI65
aI36
aI9
aI11
aI11
aI11
aI15
aI22
aI2
aI38
aI15
aI13
aI15
aI12
aI14
aI111
aI63
aI138
aI17
aI8
aI17
aI8
aI15
aI9
aI12
aI5
aI14
aI0
aI10
aI13
aI6
aI14
aI6
aI7
aI20
aI16
aI12
aI11
aI11
aI28
aI12
aI8
aI9
aI14
aI27
aI16
aI13
aI12
aI12
aI15
aI15
aI12
aI15
aI12
aI12
aI11
aI8
aa(lp44
I21
aI14
aI11
aI13
aI18
aI18
aI22
aI10
aI11
aI11
aI9
aI9
aI13
aI4
aI22
aI63
aI35
aI11
aI9
aI3
aI2
aI16
aI18
aI13
aI38
aI16
aI2
aI6
aI8
aI2
aI106
aI58
aI136
aI9
aI11
aI7
aI10
aI15
aI14
aI3
aI14
aI7
aI13
aI0
aI6
aI14
aI4
aI14
aI12
aI16
aI7
aI6
aI1
aI6
aI22
aI6
aI14
aI15
aI7
aI25
aI5
aI8
aI6
aI1
aI6
aI6
aI1
aI14
aI6
aI4
aI13
aI14
aa(lp45
I23
aI18
aI8
aI18
aI23
aI23
aI28
aI9
aI9
aI15
aI10
aI12
aI15
aI2
aI27
aI69
aI40
aI8
aI12
aI8
aI7
aI13
aI18
aI16
aI34
aI13
aI5
aI8
aI11
aI7
aI107
aI55
aI133
aI7
aI9
aI10
aI7
aI19
aI14
aI7
aI14
aI4
aI15
aI6
aI0
aI14
aI8
aI14
aI16
aI18
aI8
aI1
aI5
aI7
aI22
aI1
aI13
aI15
aI4
aI22
aI9
aI14
aI7
aI5
aI7
aI7
aI5
aI19
aI7
aI3
aI11
aI13
aa(lp46
I12
aI16
aI18
aI10
aI21
aI21
aI20
aI12
aI11
aI8
aI10
aI9
aI6
aI17
aI20
aI64
aI33
aI11
aI14
aI13
aI13
aI18
aI23
aI6
aI40
aI18
aI16
aI17
aI11
aI15
aI114
aI63
aI139
aI18
aI11
aI19
aI12
aI17
aI11
aI15
aI6
aI16
aI3
aI13
aI18
aI0
aI15
aI8
aI9
aI21
aI19
aI17
aI15
aI14
aI28
aI17
aI12
aI12
aI16
aI31
aI19
aI18
aI14
aI15
aI15
aI15
aI15
aI17
aI14
aI14
aI13
aI12
aa(lp47
I17
aI15
aI11
aI12
aI22
aI22
aI24
aI5
aI9
aI10
aI6
aI7
aI11
aI6
aI24
aI66
aI38
aI9
aI7
aI6
aI5
aI16
aI18
aI12
aI38
aI16
aI5
aI9
aI6
aI6
aI107
aI58
aI136
aI10
aI8
aI11
aI8
aI17
aI12
aI7
aI11
aI8
aI11
aI4
aI7
aI11
aI0
aI11
aI11
aI17
aI10
aI7
aI4
aI5
aI25
aI7
aI11
aI13
aI8
aI25
aI10
aI12
aI2
aI4
aI7
aI7
aI4
aI16
aI4
aI6
aI11
aI12
aa(lp48
I12
aI16
aI18
aI10
aI21
aI21
aI20
aI12
aI11
aI8
aI10
aI9
aI6
aI17
aI20
aI64
aI33
aI11
aI14
aI13
aI13
aI18
aI23
aI6
aI40
aI18
aI16
aI17
aI11
aI15
aI114
aI63
aI139
aI18
aI11
aI19
aI12
aI17
aI11
aI15
aI6
aI16
aI3
aI13
aI18
aI8
aI15
aI0
aI9
aI21
aI19
aI17
aI15
aI14
aI28
aI17
aI12
aI12
aI16
aI31
aI19
aI18
aI14
aI15
aI15
aI15
aI15
aI17
aI14
aI14
aI13
aI12
aa(lp49
I10
aI8
aI20
aI4
aI14
aI14
aI17
aI15
aI15
aI10
aI11
aI9
aI10
aI15
aI17
aI58
aI34
aI16
aI13
aI11
aI11
aI20
aI25
aI8
aI41
aI20
aI13
aI17
aI11
aI15
aI109
aI67
aI145
aI19
aI15
aI19
aI15
aI9
aI14
aI12
aI12
aI16
aI7
aI11
aI16
aI10
aI14
aI10
aI0
aI19
aI19
aI15
aI12
aI15
aI26
aI15
aI15
aI16
aI16
aI35
aI17
aI14
aI15
aI13
aI16
aI16
aI13
aI8
aI14
aI13
aI17
aI16
aa(lp50
I24
aI19
aI16
aI18
aI24
aI24
aI28
aI20
aI21
aI19
aI19
aI14
aI20
aI14
aI28
aI69
aI39
aI20
aI18
aI13
aI13
aI24
aI14
aI20
aI41
aI24
aI13
aI13
aI18
aI12
aI97
aI59
aI137
aI15
aI21
aI8
aI19
aI21
aI21
aI13
aI20
aI15
aI19
aI13
aI20
aI17
aI16
aI17
aI19
aI0
aI13
aI16
aI14
aI16
aI21
aI16
aI21
aI22
aI15
aI30
aI11
aI9
aI17
aI14
aI13
aI13
aI14
aI20
aI16
aI14
aI22
aI21
aa(lp51
I24
aI19
aI9
aI19
aI24
aI24
aI28
aI11
aI13
aI16
aI11
aI13
aI15
aI4
aI28
aI68
aI40
aI12
aI12
aI6
aI6
aI17
aI15
aI17
aI37
aI17
aI6
aI2
aI12
aI3
aI103
aI58
aI133
aI4
aI13
aI8
aI11
aI19
aI16
aI6
aI15
aI5
aI16
aI6
aI9
aI14
aI9
aI14
aI17
aI15
aI0
aI9
aI5
aI8
aI19
aI9
aI16
aI16
aI5
aI24
aI6
aI11
aI9
aI5
aI6
aI6
aI5
aI19
aI9
aI7
aI15
aI16
aa(lp52
I23
aI17
aI8
aI17
aI21
aI21
aI27
aI9
aI9
aI14
aI10
aI11
aI14
aI2
aI26
aI69
aI39
aI8
aI12
aI7
aI6
aI13
aI17
aI17
aI34
aI13
aI4
aI7
aI11
aI5
aI106
aI55
aI133
aI7
aI9
aI9
aI7
aI18
aI14
aI7
aI14
aI3
aI15
aI5
aI2
aI14
aI7
aI14
aI15
aI17
aI7
aI0
aI5
aI7
aI22
aI1
aI13
aI14
aI3
aI22
aI7
aI10
aI8
aI5
aI6
aI6
aI5
aI19
aI7
aI3
aI11
aI13
aa(lp53
I21
aI14
aI10
aI13
aI18
aI18
aI22
aI9
aI10
aI11
aI9
aI9
aI12
aI4
aI22
aI63
aI35
aI11
aI9
aI3
aI3
aI16
aI17
aI13
aI38
aI16
aI2
aI6
aI8
aI2
aI105
aI58
aI136
aI8
aI11
aI7
aI9
aI15
aI15
aI4
aI13
aI5
aI12
aI1
aI6
aI11
aI4
aI11
aI12
aI16
aI7
aI6
aI0
aI5
aI22
aI6
aI13
aI15
aI5
aI25
aI5
aI9
aI6
aI1
aI5
aI5
aI1
aI14
aI6
aI3
aI14
aI13
aa(lp54
I21
aI19
aI9
aI17
aI23
aI23
aI27
aI9
aI10
aI11
aI10
aI10
aI13
aI4
aI27
aI69
aI41
aI9
aI10
aI7
aI6
aI12
aI18
aI15
aI35
aI12
aI5
aI7
aI9
aI6
aI107
aI56
aI134
aI7
aI9
aI10
aI7
aI20
aI13
aI7
aI12
aI5
aI14
aI6
aI5
aI13
aI6
aI13
aI15
aI18
aI8
aI5
aI6
aI0
aI22
aI5
aI13
aI13
aI5
aI23
aI9
aI14
aI5
aI5
aI6
aI6
aI5
aI19
aI6
aI4
aI12
aI13
aa(lp55
I35
aI31
aI27
aI29
aI38
aI38
aI38
aI27
aI28
aI29
aI29
aI27
aI29
aI24
aI42
aI76
aI44
aI30
aI27
aI24
aI25
aI33
aI4
aI29
aI36
aI33
aI23
aI23
aI27
aI24
aI95
aI50
aI130
aI23
aI26
aI18
aI25
aI32
aI28
aI24
aI29
aI25
aI29
aI25
aI27
aI29
aI26
aI29
aI30
aI22
aI23
aI28
aI24
aI26
aI0
aI28
aI28
aI32
aI25
aI26
aI26
aI20
aI27
aI25
aI24
aI24
aI25
aI32
aI27
aI26
aI33
aI28
aa(lp56
I23
aI17
aI8
aI17
aI21
aI21
aI27
aI9
aI9
aI14
aI10
aI11
aI14
aI2
aI26
aI69
aI39
aI8
aI12
aI7
aI6
aI13
aI17
aI17
aI34
aI13
aI4
aI7
aI11
aI5
aI106
aI55
aI133
aI7
aI9
aI9
aI7
aI18
aI14
aI7
aI14
aI3
aI15
aI5
aI2
aI14
aI7
aI14
aI15
aI17
aI7
aI1
aI5
aI7
aI22
aI0
aI13
aI14
aI3
aI22
aI7
aI10
aI8
aI5
aI6
aI6
aI5
aI19
aI7
aI3
aI11
aI13
aa(lp57
I15
aI23
aI13
aI18
aI25
aI25
aI30
aI7
aI7
aI7
aI7
aI9
aI7
aI13
aI30
aI72
aI41
aI6
aI12
aI15
aI14
aI10
aI26
aI12
aI33
aI10
aI14
aI17
aI12
aI15
aI116
aI57
aI134
aI15
aI5
aI19
aI9
aI24
aI4
aI15
aI8
aI14
aI10
aI15
aI15
aI15
aI14
aI15
aI16
aI26
aI17
aI15
aI14
aI12
aI30
aI15
aI0
aI5
aI14
aI23
aI18
aI17
aI14
aI15
aI16
aI16
aI15
aI24
aI15
aI14
aI4
aI3
aa(lp58
I19
aI27
aI12
aI21
aI28
aI28
aI33
aI10
aI11
aI11
aI11
aI15
aI11
aI14
aI33
aI75
aI42
aI8
aI16
aI18
aI16
aI8
aI25
aI15
aI29
aI8
aI15
aI17
aI15
aI17
aI111
aI52
aI129
aI13
aI7
aI20
aI10
aI27
aI7
aI19
aI8
aI12
aI12
aI16
aI14
aI20
aI15
aI20
aI20
aI26
aI18
aI14
aI15
aI12
aI31
aI14
aI5
aI0
aI12
aI19
aI19
aI20
aI14
aI15
aI18
aI18
aI15
aI27
aI14
aI16
aI3
aI5
aa(lp59
I21
aI20
aI5
aI19
aI27
aI27
aI29
aI8
aI8
aI14
aI10
aI11
aI13
aI5
aI29
aI70
aI41
aI7
aI12
aI10
aI9
aI11
aI18
aI16
aI33
aI11
aI7
aI9
aI11
aI9
aI107
aI52
aI131
aI3
aI7
aI13
aI6
aI21
aI12
aI10
aI12
aI1
aI13
aI8
aI7
aI16
aI8
aI16
aI17
aI18
aI4
aI7
aI7
aI8
aI26
aI7
aI11
aI12
aI0
aI19
aI11
aI15
aI8
aI7
aI9
aI9
aI7
aI21
aI7
aI8
aI10
aI11
aa(lp60
I34
aI37
aI15
aI34
aI43
aI43
aI47
aI25
aI24
aI25
aI25
aI27
aI25
aI22
aI47
aI86
aI52
aI19
aI29
aI27
aI27
aI12
aI26
aI31
aI33
aI12
aI23
aI23
aI27
aI25
aI106
aI44
aI125
aI18
aI21
aI26
aI22
aI37
aI24
aI27
aI27
aI20
aI30
aI25
aI24
aI31
aI25
aI31
aI35
aI31
aI22
aI22
aI24
aI23
aI26
aI22
aI21
aI20
aI20
aI0
aI27
aI31
aI25
aI24
aI25
aI25
aI24
aI37
aI24
aI24
aI18
aI21
aa(lp61
I23
aI14
aI13
aI17
aI20
aI20
aI27
aI11
aI13
aI13
aI12
aI11
aI13
aI6
aI27
aI64
aI36
aI13
aI12
aI6
aI7
aI18
aI15
aI17
aI38
aI18
aI6
aI5
aI12
aI4
aI104
aI60
aI137
aI7
aI13
aI4
aI13
aI16
aI17
aI6
aI15
aI8
aI16
aI6
aI11
aI16
aI9
aI16
aI17
aI12
aI6
aI11
aI6
aI7
aI21
aI11
aI16
aI17
aI8
aI25
aI0
aI8
aI9
aI6
aI5
aI5
aI6
aI15
aI9
aI7
aI17
aI16
aa(lp62
I22
aI12
aI18
aI14
aI21
aI21
aI25
aI15
aI15
aI14
aI14
aI11
aI14
aI12
aI25
aI61
aI37
aI16
aI13
aI7
aI7
aI23
aI15
aI14
aI43
aI23
aI11
aI11
aI14
aI9
aI100
aI63
aI142
aI14
aI15
aI10
aI16
aI13
aI16
aI7
aI15
aI15
aI14
aI10
aI14
aI11
aI13
aI11
aI14
aI9
aI14
aI14
aI10
aI13
aI18
aI14
aI16
aI18
aI15
aI31
aI8
aI0
aI14
aI10
aI11
aI11
aI10
aI13
aI14
aI13
aI17
aI16
aa(lp63
I17
aI17
aI11
aI12
aI22
aI22
aI25
aI5
aI7
aI9
aI5
aI6
aI9
aI5
aI25
aI66
aI38
aI7
aI7
aI7
aI6
aI16
aI20
aI11
aI38
aI16
aI5
aI9
aI6
aI7
aI108
aI58
aI136
aI9
aI6
aI11
aI6
aI17
aI11
aI8
aI8
aI7
aI9
aI5
aI6
aI10
aI1
aI10
aI11
aI18
aI10
aI6
aI5
aI3
aI24
aI6
aI9
aI12
aI7
aI25
aI10
aI12
aI0
aI5
aI8
aI8
aI5
aI17
aI2
aI5
aI10
aI10
aa(lp64
I21
aI14
aI10
aI13
aI18
aI18
aI22
aI9
aI10
aI10
aI9
aI8
aI13
aI4
aI22
aI63
aI35
aI11
aI8
aI3
aI3
aI16
aI17
aI14
aI38
aI16
aI2
aI6
aI8
aI2
aI105
aI58
aI136
aI8
aI11
aI7
aI9
aI15
aI15
aI3
aI13
aI5
aI12
aI1
aI6
aI12
aI3
aI12
aI12
aI16
aI7
aI6
aI1
aI5
aI22
aI6
aI13
aI15
aI5
aI25
aI5
aI9
aI5
aI0
aI5
aI5
aI1
aI14
aI6
aI3
aI14
aI13
aa(lp65
I20
aI17
aI11
aI15
aI22
aI22
aI24
aI9
aI13
aI14
aI10
aI10
aI15
aI5
aI24
aI69
aI37
aI12
aI10
aI4
aI4
aI17
aI16
aI14
aI37
aI17
aI4
aI4
aI11
aI2
aI103
aI59
aI135
aI8
aI13
aI8
aI10
aI18
aI16
aI4
aI14
aI6
aI15
aI3
aI8
aI12
aI7
aI12
aI13
aI14
aI10
aI8
aI3
aI7
aI22
aI8
aI15
aI16
aI6
aI26
aI6
aI10
aI8
aI3
aI0
aI3
aI3
aI19
aI8
aI5
aI14
aI14
aa(lp66
I20
aI17
aI11
aI15
aI22
aI22
aI24
aI9
aI13
aI14
aI10
aI10
aI15
aI5
aI24
aI69
aI37
aI12
aI10
aI4
aI4
aI17
aI16
aI14
aI37
aI17
aI4
aI4
aI11
aI2
aI103
aI59
aI135
aI8
aI13
aI8
aI10
aI18
aI16
aI4
aI14
aI6
aI15
aI3
aI8
aI12
aI7
aI12
aI13
aI14
aI10
aI8
aI3
aI7
aI22
aI8
aI15
aI16
aI6
aI26
aI6
aI10
aI8
aI3
aI3
aI0
aI3
aI19
aI8
aI5
aI14
aI14
aa(lp67
I21
aI14
aI10
aI13
aI18
aI18
aI22
aI9
aI10
aI10
aI9
aI8
aI13
aI4
aI22
aI63
aI35
aI11
aI8
aI3
aI3
aI16
aI17
aI14
aI38
aI16
aI2
aI6
aI8
aI2
aI105
aI58
aI136
aI8
aI11
aI7
aI9
aI15
aI15
aI3
aI13
aI5
aI12
aI1
aI6
aI12
aI3
aI12
aI12
aI16
aI7
aI6
aI1
aI5
aI22
aI6
aI13
aI15
aI5
aI25
aI5
aI9
aI5
aI1
aI5
aI5
aI0
aI14
aI6
aI3
aI14
aI13
aa(lp68
I15
aI9
aI26
aI9
aI10
aI10
aI16
aI20
aI20
aI17
aI18
aI15
aI18
aI19
aI14
aI57
aI29
aI21
aI19
aI15
aI14
aI27
aI27
aI15
aI44
aI27
aI17
aI22
aI17
aI18
aI105
aI68
aI144
aI23
aI20
aI22
aI20
aI12
aI20
aI17
aI16
aI20
aI14
aI16
aI19
aI13
aI19
aI13
aI12
aI20
aI23
aI18
aI16
aI19
aI27
aI18
aI21
aI23
aI20
aI39
aI19
aI18
aI19
aI15
aI20
aI20
aI15
aI0
aI19
aI19
aI23
aI21
aa(lp69
I16
aI18
aI10
aI14
aI24
aI24
aI27
aI2
aI5
aI8
aI3
aI5
aI7
aI5
aI27
aI67
aI39
aI8
aI5
aI8
aI8
aI15
aI20
aI12
aI37
aI15
aI6
aI8
aI4
aI8
aI108
aI58
aI136
aI9
aI7
aI11
aI4
aI18
aI10
aI8
aI7
aI7
aI8
aI7
aI6
aI10
aI4
aI10
aI13
aI19
aI10
aI6
aI6
aI2
aI24
aI6
aI8
aI11
aI7
aI25
aI11
aI12
aI3
aI6
aI9
aI9
aI6
aI18
aI0
aI5
aI9
aI8
aa(lp70
I20
aI17
aI7
aI15
aI21
aI21
aI24
aI9
aI9
aI11
aI9
aI9
aI12
aI4
aI24
aI69
aI37
aI10
aI9
aI4
aI4
aI15
aI16
aI15
aI36
aI15
aI3
aI4
aI8
aI3
aI104
aI57
aI135
aI6
aI10
aI7
aI8
aI18
aI14
aI4
aI13
aI6
aI14
aI3
aI7
aI13
aI4
aI13
aI13
aI16
aI6
aI8
aI3
aI5
aI22
aI8
aI14
aI14
aI6
aI24
aI6
aI10
aI5
aI3
aI4
aI4
aI3
aI19
aI7
aI0
aI13
aI13
aa(lp71
I18
aI25
aI9
aI21
aI28
aI28
aI32
aI9
aI8
aI9
aI10
aI12
aI10
aI13
aI32
aI74
aI44
aI4
aI15
aI17
aI15
aI8
aI24
aI14
aI30
aI8
aI14
aI16
aI15
aI16
aI112
aI51
aI129
aI11
aI4
aI18
aI8
aI25
aI5
aI16
aI10
aI11
aI12
aI15
aI13
aI19
aI13
aI19
aI18
aI25
aI16
aI13
aI14
aI11
aI29
aI13
aI4
aI4
aI11
aI18
aI18
aI19
aI13
aI13
aI16
aI16
aI13
aI25
aI13
aI13
aI0
aI4
aa(lp72
I16
aI23
aI13
aI18
aI25
aI25
aI30
aI7
aI7
aI8
aI7
aI9
aI8
aI13
aI30
aI72
aI41
aI6
aI13
aI15
aI15
aI10
aI27
aI12
aI33
aI10
aI14
aI17
aI12
aI16
aI116
aI57
aI133
aI15
aI5
aI19
aI9
aI24
aI4
aI15
aI8
aI14
aI9
aI15
aI14
aI15
aI14
aI15
aI16
aI26
aI17
aI14
aI15
aI11
aI31
aI14
aI1
aI5
aI14
aI24
aI18
aI17
aI14
aI15
aI16
aI16
aI15
aI24
aI15
aI14
aI4
aI0
aa.